;
; File generated by cc65 v 2.16 - Git N/A
;
	.fopt		compiler,"cc65 v 2.16 - Git N/A"
	.setcpu		"6502"
	.smart		on
	.autoimport	on
	.case		on
	.debuginfo	off
	.importzp	sp, sreg, regsave, regbank
	.importzp	tmp1, tmp2, tmp3, tmp4, ptr1, ptr2, ptr3, ptr4
	.macpack	longbranch
	.forceimport	__STARTUP__
	.import		_memcpy
	.import		_pal_bg
	.import		_pal_spr
	.import		_ppu_wait_frame
	.import		_ppu_on_all
	.import		_oam_meta_spr
	.import		_pad_poll
	.import		_vram_adr
	.import		_vram_unrle
	.export		_map1
	.export		_collisionMap
	.export		_oam_off
	.import		_paldat
	.export		_playerFrames
	.export		_playerSpriteData
	.export		_potionSpriteData
	.export		_enemyData
	.export		_enemyFrames
	.export		_enemySpriteDataTemplate
	.export		_killPotion
	.export		_setupMap
	.export		_setSpriteFrame
	.export		_setSpritePalette
	.export		_setSpritePriority
	.export		_flipSprite
	.export		_spriteCount
	.export		_updateEnemySprites
	.export		_updatePlayerSprite
	.export		_updatePotionSprite
	.export		_four_Sides
	.export		_four_SidesSmall
	.export		_getCollisionIndex
	.export		_smallCollideCheckVertical
	.export		_collideCheckVertical
	.export		_collideCheckHorizontal
	.export		_bgVertCollideCheck
	.export		_bgHorizCollideCheck
	.export		_enemyCollideCheck
	.export		_potionEnemyCollideCheck
	.export		_updateEnemies
	.export		_updatePlayerVerticalMovement
	.export		_playerMoveHorizontal
	.export		_updatePlayerAttack
	.export		_updatePotionMovement
	.export		_simpleUpdatePotionMovement
	.export		_main

.segment	"DATA"

.segment	"ZEROPAGE"
_enemyIndex:
	.byte	$00
_enemyColliding:
	.byte	$00
.segment	"DATA"
_spriteFlickerIndex:
	.byte	$00
_sprPriorityToggle:
	.byte	$00
_playerFrame:
	.byte	$00
_playerJumping:
	.byte	$00
_playerJumpCounter:
	.byte	$00
_playerVertVel:
	.byte	$00
_jumpButtonPressed:
	.byte	$00
_playerSpriteData:
	.byte	$00
	.byte	$00
	.byte	$08
	.byte	$03
	.byte	$08
	.byte	$00
	.byte	$09
	.byte	$03
	.byte	$00
	.byte	$08
	.byte	$18
	.byte	$03
	.byte	$08
	.byte	$08
	.byte	$19
	.byte	$03
	.byte	$80
_potionX:
	.byte	$F8
_potionY:
	.byte	$F8
_potionIsActive:
	.byte	$00
_potionVerticalVel:
	.byte	$00
_potionMoveCounter:
	.byte	$00
_potionSpriteData:
	.byte	$00
	.byte	$00
	.byte	$2A
	.byte	$00
	.byte	$80
_enemySpriteCount:
	.byte	$00

.segment	"RODATA"

_map1:
	.byte	$01
	.byte	$42
	.byte	$01
	.byte	$1F
	.byte	$41
	.byte	$01
	.byte	$20
	.byte	$00
	.byte	$01
	.byte	$0D
	.byte	$41
	.byte	$00
	.byte	$01
	.byte	$0E
	.byte	$41
	.byte	$41
	.byte	$00
	.byte	$01
	.byte	$0D
	.byte	$41
	.byte	$42
	.byte	$00
	.byte	$01
	.byte	$06
	.byte	$42
	.byte	$01
	.byte	$06
	.byte	$41
	.byte	$41
	.byte	$00
	.byte	$01
	.byte	$02
	.byte	$42
	.byte	$01
	.byte	$03
	.byte	$00
	.byte	$01
	.byte	$06
	.byte	$41
	.byte	$42
	.byte	$00
	.byte	$01
	.byte	$08
	.byte	$42
	.byte	$00
	.byte	$01
	.byte	$03
	.byte	$41
	.byte	$41
	.byte	$00
	.byte	$01
	.byte	$02
	.byte	$42
	.byte	$42
	.byte	$41
	.byte	$01
	.byte	$09
	.byte	$42
	.byte	$00
	.byte	$01
	.byte	$02
	.byte	$41
	.byte	$01
	.byte	$05
	.byte	$42
	.byte	$42
	.byte	$00
	.byte	$01
	.byte	$02
	.byte	$41
	.byte	$41
	.byte	$00
	.byte	$01
	.byte	$1D
	.byte	$41
	.byte	$41
	.byte	$00
	.byte	$01
	.byte	$1D
	.byte	$41
	.byte	$41
	.byte	$00
	.byte	$01
	.byte	$07
	.byte	$42
	.byte	$00
	.byte	$01
	.byte	$14
	.byte	$41
	.byte	$41
	.byte	$00
	.byte	$01
	.byte	$1D
	.byte	$41
	.byte	$01
	.byte	$0D
	.byte	$42
	.byte	$01
	.byte	$03
	.byte	$41
	.byte	$01
	.byte	$08
	.byte	$00
	.byte	$01
	.byte	$04
	.byte	$41
	.byte	$41
	.byte	$50
	.byte	$00
	.byte	$01
	.byte	$0A
	.byte	$42
	.byte	$01
	.byte	$02
	.byte	$00
	.byte	$01
	.byte	$04
	.byte	$41
	.byte	$42
	.byte	$00
	.byte	$01
	.byte	$07
	.byte	$41
	.byte	$41
	.byte	$50
	.byte	$00
	.byte	$01
	.byte	$12
	.byte	$41
	.byte	$42
	.byte	$00
	.byte	$01
	.byte	$07
	.byte	$41
	.byte	$41
	.byte	$50
	.byte	$00
	.byte	$01
	.byte	$12
	.byte	$41
	.byte	$42
	.byte	$00
	.byte	$01
	.byte	$07
	.byte	$41
	.byte	$41
	.byte	$50
	.byte	$42
	.byte	$01
	.byte	$02
	.byte	$00
	.byte	$01
	.byte	$0F
	.byte	$41
	.byte	$42
	.byte	$00
	.byte	$01
	.byte	$07
	.byte	$41
	.byte	$01
	.byte	$08
	.byte	$42
	.byte	$00
	.byte	$01
	.byte	$02
	.byte	$41
	.byte	$01
	.byte	$09
	.byte	$00
	.byte	$00
	.byte	$42
	.byte	$42
	.byte	$41
	.byte	$01
	.byte	$06
	.byte	$00
	.byte	$01
	.byte	$1D
	.byte	$41
	.byte	$41
	.byte	$00
	.byte	$01
	.byte	$1D
	.byte	$41
	.byte	$41
	.byte	$00
	.byte	$01
	.byte	$05
	.byte	$42
	.byte	$01
	.byte	$05
	.byte	$00
	.byte	$01
	.byte	$11
	.byte	$41
	.byte	$41
	.byte	$00
	.byte	$01
	.byte	$1D
	.byte	$41
	.byte	$41
	.byte	$00
	.byte	$01
	.byte	$05
	.byte	$41
	.byte	$01
	.byte	$12
	.byte	$00
	.byte	$01
	.byte	$04
	.byte	$41
	.byte	$41
	.byte	$00
	.byte	$01
	.byte	$06
	.byte	$42
	.byte	$01
	.byte	$04
	.byte	$41
	.byte	$42
	.byte	$01
	.byte	$07
	.byte	$00
	.byte	$01
	.byte	$08
	.byte	$41
	.byte	$41
	.byte	$00
	.byte	$01
	.byte	$07
	.byte	$42
	.byte	$00
	.byte	$01
	.byte	$02
	.byte	$41
	.byte	$00
	.byte	$01
	.byte	$10
	.byte	$41
	.byte	$41
	.byte	$00
	.byte	$01
	.byte	$0B
	.byte	$41
	.byte	$00
	.byte	$01
	.byte	$10
	.byte	$41
	.byte	$01
	.byte	$07
	.byte	$00
	.byte	$01
	.byte	$05
	.byte	$41
	.byte	$01
	.byte	$07
	.byte	$00
	.byte	$01
	.byte	$04
	.byte	$41
	.byte	$01
	.byte	$06
	.byte	$42
	.byte	$01
	.byte	$06
	.byte	$43
	.byte	$43
	.byte	$00
	.byte	$00
	.byte	$42
	.byte	$01
	.byte	$09
	.byte	$43
	.byte	$42
	.byte	$01
	.byte	$07
	.byte	$41
	.byte	$41
	.byte	$00
	.byte	$00
	.byte	$42
	.byte	$01
	.byte	$05
	.byte	$00
	.byte	$01
	.byte	$02
	.byte	$42
	.byte	$01
	.byte	$11
	.byte	$00
	.byte	$41
	.byte	$41
	.byte	$00
	.byte	$01
	.byte	$1D
	.byte	$41
	.byte	$01
	.byte	$20
	.byte	$42
	.byte	$01
	.byte	$1E
	.byte	$42
	.byte	$01
	.byte	$00
_collisionMap:
	.byte	$01
	.byte	$01
	.byte	$01
	.byte	$01
	.byte	$01
	.byte	$01
	.byte	$01
	.byte	$01
	.byte	$01
	.byte	$01
	.byte	$01
	.byte	$01
	.byte	$01
	.byte	$01
	.byte	$01
	.byte	$01
	.byte	$01
	.byte	$01
	.byte	$01
	.byte	$01
	.byte	$01
	.byte	$01
	.byte	$01
	.byte	$01
	.byte	$01
	.byte	$01
	.byte	$01
	.byte	$01
	.byte	$01
	.byte	$01
	.byte	$01
	.byte	$01
	.byte	$01
	.byte	$01
	.byte	$01
	.byte	$01
	.byte	$01
	.byte	$01
	.byte	$01
	.byte	$01
	.byte	$01
	.byte	$01
	.byte	$01
	.byte	$01
	.byte	$01
	.byte	$01
	.byte	$01
	.byte	$01
	.byte	$01
	.byte	$01
	.byte	$01
	.byte	$01
	.byte	$01
	.byte	$01
	.byte	$01
	.byte	$01
	.byte	$01
	.byte	$01
	.byte	$01
	.byte	$01
	.byte	$01
	.byte	$01
	.byte	$01
	.byte	$01
	.byte	$01
	.byte	$00
	.byte	$00
	.byte	$00
	.byte	$00
	.byte	$00
	.byte	$00
	.byte	$00
	.byte	$00
	.byte	$00
	.byte	$00
	.byte	$00
	.byte	$00
	.byte	$00
	.byte	$00
	.byte	$01
	.byte	$00
	.byte	$00
	.byte	$00
	.byte	$00
	.byte	$00
	.byte	$00
	.byte	$00
	.byte	$00
	.byte	$00
	.byte	$00
	.byte	$00
	.byte	$00
	.byte	$00
	.byte	$00
	.byte	$00
	.byte	$01
	.byte	$01
	.byte	$00
	.byte	$00
	.byte	$00
	.byte	$00
	.byte	$00
	.byte	$00
	.byte	$00
	.byte	$00
	.byte	$00
	.byte	$00
	.byte	$00
	.byte	$00
	.byte	$00
	.byte	$00
	.byte	$01
	.byte	$00
	.byte	$00
	.byte	$00
	.byte	$00
	.byte	$00
	.byte	$00
	.byte	$04
	.byte	$00
	.byte	$00
	.byte	$00
	.byte	$00
	.byte	$00
	.byte	$00
	.byte	$00
	.byte	$00
	.byte	$01
	.byte	$01
	.byte	$00
	.byte	$00
	.byte	$00
	.byte	$00
	.byte	$00
	.byte	$00
	.byte	$00
	.byte	$00
	.byte	$00
	.byte	$00
	.byte	$00
	.byte	$00
	.byte	$00
	.byte	$00
	.byte	$01
	.byte	$00
	.byte	$00
	.byte	$00
	.byte	$02
	.byte	$00
	.byte	$00
	.byte	$00
	.byte	$00
	.byte	$00
	.byte	$00
	.byte	$02
	.byte	$00
	.byte	$00
	.byte	$00
	.byte	$00
	.byte	$01
	.byte	$01
	.byte	$00
	.byte	$00
	.byte	$00
	.byte	$00
	.byte	$00
	.byte	$01
	.byte	$01
	.byte	$01
	.byte	$01
	.byte	$01
	.byte	$01
	.byte	$01
	.byte	$01
	.byte	$01
	.byte	$01
	.byte	$00
	.byte	$00
	.byte	$00
	.byte	$00
	.byte	$01
	.byte	$01
	.byte	$01
	.byte	$01
	.byte	$01
	.byte	$01
	.byte	$00
	.byte	$00
	.byte	$00
	.byte	$00
	.byte	$00
	.byte	$01
	.byte	$01
	.byte	$00
	.byte	$00
	.byte	$00
	.byte	$00
	.byte	$00
	.byte	$00
	.byte	$00
	.byte	$00
	.byte	$00
	.byte	$00
	.byte	$00
	.byte	$00
	.byte	$00
	.byte	$00
	.byte	$00
	.byte	$00
	.byte	$00
	.byte	$00
	.byte	$00
	.byte	$00
	.byte	$00
	.byte	$00
	.byte	$00
	.byte	$00
	.byte	$00
	.byte	$00
	.byte	$00
	.byte	$00
	.byte	$00
	.byte	$00
	.byte	$01
	.byte	$01
	.byte	$00
	.byte	$00
	.byte	$00
	.byte	$00
	.byte	$00
	.byte	$00
	.byte	$00
	.byte	$00
	.byte	$00
	.byte	$00
	.byte	$00
	.byte	$00
	.byte	$00
	.byte	$00
	.byte	$00
	.byte	$00
	.byte	$00
	.byte	$00
	.byte	$00
	.byte	$00
	.byte	$00
	.byte	$00
	.byte	$00
	.byte	$00
	.byte	$00
	.byte	$00
	.byte	$00
	.byte	$00
	.byte	$00
	.byte	$00
	.byte	$01
	.byte	$01
	.byte	$00
	.byte	$00
	.byte	$00
	.byte	$00
	.byte	$04
	.byte	$00
	.byte	$00
	.byte	$00
	.byte	$00
	.byte	$00
	.byte	$00
	.byte	$00
	.byte	$00
	.byte	$00
	.byte	$00
	.byte	$00
	.byte	$00
	.byte	$00
	.byte	$00
	.byte	$00
	.byte	$00
	.byte	$00
	.byte	$00
	.byte	$00
	.byte	$00
	.byte	$00
	.byte	$00
	.byte	$00
	.byte	$00
	.byte	$00
	.byte	$01
	.byte	$01
	.byte	$00
	.byte	$00
	.byte	$00
	.byte	$00
	.byte	$00
	.byte	$00
	.byte	$00
	.byte	$00
	.byte	$00
	.byte	$00
	.byte	$00
	.byte	$00
	.byte	$02
	.byte	$00
	.byte	$00
	.byte	$00
	.byte	$00
	.byte	$00
	.byte	$00
	.byte	$00
	.byte	$00
	.byte	$00
	.byte	$00
	.byte	$00
	.byte	$00
	.byte	$00
	.byte	$00
	.byte	$00
	.byte	$00
	.byte	$00
	.byte	$01
	.byte	$01
	.byte	$01
	.byte	$01
	.byte	$01
	.byte	$01
	.byte	$01
	.byte	$01
	.byte	$01
	.byte	$01
	.byte	$01
	.byte	$01
	.byte	$01
	.byte	$01
	.byte	$00
	.byte	$00
	.byte	$00
	.byte	$00
	.byte	$01
	.byte	$01
	.byte	$01
	.byte	$01
	.byte	$01
	.byte	$01
	.byte	$01
	.byte	$01
	.byte	$01
	.byte	$00
	.byte	$00
	.byte	$00
	.byte	$00
	.byte	$00
	.byte	$01
	.byte	$01
	.byte	$00
	.byte	$00
	.byte	$00
	.byte	$00
	.byte	$00
	.byte	$00
	.byte	$00
	.byte	$00
	.byte	$00
	.byte	$00
	.byte	$00
	.byte	$00
	.byte	$00
	.byte	$00
	.byte	$00
	.byte	$00
	.byte	$00
	.byte	$00
	.byte	$00
	.byte	$00
	.byte	$01
	.byte	$00
	.byte	$00
	.byte	$00
	.byte	$00
	.byte	$00
	.byte	$00
	.byte	$00
	.byte	$00
	.byte	$00
	.byte	$01
	.byte	$01
	.byte	$00
	.byte	$00
	.byte	$00
	.byte	$00
	.byte	$00
	.byte	$00
	.byte	$00
	.byte	$00
	.byte	$00
	.byte	$00
	.byte	$00
	.byte	$00
	.byte	$00
	.byte	$00
	.byte	$00
	.byte	$00
	.byte	$00
	.byte	$00
	.byte	$00
	.byte	$00
	.byte	$01
	.byte	$00
	.byte	$00
	.byte	$00
	.byte	$00
	.byte	$00
	.byte	$00
	.byte	$00
	.byte	$00
	.byte	$00
	.byte	$01
	.byte	$01
	.byte	$00
	.byte	$00
	.byte	$00
	.byte	$00
	.byte	$00
	.byte	$00
	.byte	$00
	.byte	$00
	.byte	$00
	.byte	$00
	.byte	$00
	.byte	$00
	.byte	$00
	.byte	$00
	.byte	$00
	.byte	$00
	.byte	$00
	.byte	$00
	.byte	$00
	.byte	$00
	.byte	$01
	.byte	$00
	.byte	$00
	.byte	$00
	.byte	$00
	.byte	$00
	.byte	$00
	.byte	$00
	.byte	$00
	.byte	$00
	.byte	$01
	.byte	$01
	.byte	$00
	.byte	$00
	.byte	$00
	.byte	$00
	.byte	$00
	.byte	$00
	.byte	$00
	.byte	$00
	.byte	$00
	.byte	$00
	.byte	$00
	.byte	$00
	.byte	$00
	.byte	$00
	.byte	$00
	.byte	$00
	.byte	$00
	.byte	$00
	.byte	$00
	.byte	$00
	.byte	$01
	.byte	$00
	.byte	$00
	.byte	$00
	.byte	$00
	.byte	$00
	.byte	$00
	.byte	$00
	.byte	$00
	.byte	$00
	.byte	$01
	.byte	$01
	.byte	$01
	.byte	$01
	.byte	$01
	.byte	$01
	.byte	$01
	.byte	$01
	.byte	$01
	.byte	$00
	.byte	$00
	.byte	$00
	.byte	$00
	.byte	$01
	.byte	$01
	.byte	$01
	.byte	$01
	.byte	$01
	.byte	$01
	.byte	$01
	.byte	$01
	.byte	$01
	.byte	$01
	.byte	$00
	.byte	$00
	.byte	$00
	.byte	$00
	.byte	$01
	.byte	$01
	.byte	$01
	.byte	$01
	.byte	$01
	.byte	$01
	.byte	$01
	.byte	$00
	.byte	$00
	.byte	$00
	.byte	$00
	.byte	$00
	.byte	$00
	.byte	$00
	.byte	$00
	.byte	$00
	.byte	$00
	.byte	$00
	.byte	$00
	.byte	$00
	.byte	$00
	.byte	$00
	.byte	$00
	.byte	$00
	.byte	$00
	.byte	$00
	.byte	$00
	.byte	$00
	.byte	$00
	.byte	$00
	.byte	$00
	.byte	$00
	.byte	$00
	.byte	$00
	.byte	$00
	.byte	$00
	.byte	$00
	.byte	$01
	.byte	$01
	.byte	$00
	.byte	$00
	.byte	$00
	.byte	$00
	.byte	$00
	.byte	$00
	.byte	$00
	.byte	$00
	.byte	$00
	.byte	$00
	.byte	$00
	.byte	$00
	.byte	$00
	.byte	$00
	.byte	$00
	.byte	$00
	.byte	$00
	.byte	$00
	.byte	$00
	.byte	$00
	.byte	$00
	.byte	$00
	.byte	$00
	.byte	$00
	.byte	$00
	.byte	$00
	.byte	$00
	.byte	$00
	.byte	$00
	.byte	$00
	.byte	$01
	.byte	$01
	.byte	$00
	.byte	$00
	.byte	$00
	.byte	$00
	.byte	$00
	.byte	$00
	.byte	$00
	.byte	$00
	.byte	$00
	.byte	$00
	.byte	$00
	.byte	$00
	.byte	$00
	.byte	$00
	.byte	$04
	.byte	$00
	.byte	$00
	.byte	$00
	.byte	$00
	.byte	$00
	.byte	$00
	.byte	$00
	.byte	$00
	.byte	$00
	.byte	$00
	.byte	$00
	.byte	$00
	.byte	$00
	.byte	$00
	.byte	$00
	.byte	$01
	.byte	$01
	.byte	$00
	.byte	$00
	.byte	$00
	.byte	$00
	.byte	$00
	.byte	$02
	.byte	$00
	.byte	$00
	.byte	$00
	.byte	$00
	.byte	$00
	.byte	$00
	.byte	$00
	.byte	$00
	.byte	$00
	.byte	$00
	.byte	$00
	.byte	$00
	.byte	$00
	.byte	$00
	.byte	$00
	.byte	$00
	.byte	$00
	.byte	$00
	.byte	$00
	.byte	$02
	.byte	$00
	.byte	$00
	.byte	$00
	.byte	$00
	.byte	$01
	.byte	$01
	.byte	$00
	.byte	$00
	.byte	$00
	.byte	$00
	.byte	$00
	.byte	$00
	.byte	$01
	.byte	$01
	.byte	$01
	.byte	$01
	.byte	$01
	.byte	$01
	.byte	$01
	.byte	$01
	.byte	$01
	.byte	$01
	.byte	$01
	.byte	$01
	.byte	$01
	.byte	$01
	.byte	$01
	.byte	$01
	.byte	$01
	.byte	$01
	.byte	$01
	.byte	$00
	.byte	$00
	.byte	$00
	.byte	$00
	.byte	$00
	.byte	$01
	.byte	$01
	.byte	$00
	.byte	$00
	.byte	$00
	.byte	$00
	.byte	$00
	.byte	$00
	.byte	$00
	.byte	$00
	.byte	$00
	.byte	$00
	.byte	$00
	.byte	$00
	.byte	$01
	.byte	$00
	.byte	$00
	.byte	$00
	.byte	$00
	.byte	$00
	.byte	$00
	.byte	$00
	.byte	$00
	.byte	$00
	.byte	$00
	.byte	$00
	.byte	$00
	.byte	$00
	.byte	$00
	.byte	$00
	.byte	$00
	.byte	$00
	.byte	$01
	.byte	$01
	.byte	$00
	.byte	$00
	.byte	$00
	.byte	$00
	.byte	$00
	.byte	$00
	.byte	$00
	.byte	$00
	.byte	$00
	.byte	$00
	.byte	$00
	.byte	$00
	.byte	$01
	.byte	$00
	.byte	$00
	.byte	$00
	.byte	$04
	.byte	$00
	.byte	$00
	.byte	$00
	.byte	$00
	.byte	$00
	.byte	$00
	.byte	$00
	.byte	$00
	.byte	$00
	.byte	$00
	.byte	$00
	.byte	$00
	.byte	$00
	.byte	$01
	.byte	$01
	.byte	$00
	.byte	$00
	.byte	$00
	.byte	$00
	.byte	$00
	.byte	$00
	.byte	$00
	.byte	$00
	.byte	$00
	.byte	$00
	.byte	$00
	.byte	$00
	.byte	$01
	.byte	$00
	.byte	$00
	.byte	$00
	.byte	$00
	.byte	$00
	.byte	$00
	.byte	$00
	.byte	$02
	.byte	$00
	.byte	$00
	.byte	$00
	.byte	$00
	.byte	$00
	.byte	$00
	.byte	$00
	.byte	$00
	.byte	$00
	.byte	$01
	.byte	$01
	.byte	$01
	.byte	$01
	.byte	$01
	.byte	$01
	.byte	$01
	.byte	$01
	.byte	$00
	.byte	$00
	.byte	$00
	.byte	$00
	.byte	$00
	.byte	$00
	.byte	$01
	.byte	$01
	.byte	$01
	.byte	$01
	.byte	$01
	.byte	$01
	.byte	$01
	.byte	$01
	.byte	$00
	.byte	$00
	.byte	$00
	.byte	$00
	.byte	$00
	.byte	$01
	.byte	$01
	.byte	$01
	.byte	$01
	.byte	$01
	.byte	$01
	.byte	$01
	.byte	$00
	.byte	$00
	.byte	$00
	.byte	$03
	.byte	$00
	.byte	$00
	.byte	$00
	.byte	$00
	.byte	$00
	.byte	$00
	.byte	$00
	.byte	$00
	.byte	$00
	.byte	$00
	.byte	$00
	.byte	$00
	.byte	$00
	.byte	$00
	.byte	$00
	.byte	$00
	.byte	$00
	.byte	$00
	.byte	$00
	.byte	$00
	.byte	$00
	.byte	$00
	.byte	$00
	.byte	$00
	.byte	$00
	.byte	$00
	.byte	$01
	.byte	$01
	.byte	$00
	.byte	$00
	.byte	$00
	.byte	$00
	.byte	$00
	.byte	$00
	.byte	$00
	.byte	$00
	.byte	$00
	.byte	$00
	.byte	$00
	.byte	$00
	.byte	$00
	.byte	$00
	.byte	$00
	.byte	$00
	.byte	$00
	.byte	$00
	.byte	$00
	.byte	$00
	.byte	$00
	.byte	$00
	.byte	$00
	.byte	$00
	.byte	$00
	.byte	$00
	.byte	$00
	.byte	$00
	.byte	$00
	.byte	$00
	.byte	$01
	.byte	$01
	.byte	$00
	.byte	$00
	.byte	$00
	.byte	$00
	.byte	$00
	.byte	$00
	.byte	$00
	.byte	$00
	.byte	$00
	.byte	$00
	.byte	$00
	.byte	$00
	.byte	$00
	.byte	$00
	.byte	$00
	.byte	$00
	.byte	$00
	.byte	$00
	.byte	$00
	.byte	$00
	.byte	$00
	.byte	$00
	.byte	$00
	.byte	$00
	.byte	$00
	.byte	$00
	.byte	$00
	.byte	$00
	.byte	$00
	.byte	$00
	.byte	$01
	.byte	$01
	.byte	$01
	.byte	$01
	.byte	$01
	.byte	$01
	.byte	$01
	.byte	$01
	.byte	$01
	.byte	$01
	.byte	$01
	.byte	$01
	.byte	$01
	.byte	$01
	.byte	$01
	.byte	$01
	.byte	$01
	.byte	$01
	.byte	$01
	.byte	$01
	.byte	$01
	.byte	$01
	.byte	$01
	.byte	$01
	.byte	$01
	.byte	$01
	.byte	$01
	.byte	$01
	.byte	$01
	.byte	$01
	.byte	$01
	.byte	$01
	.byte	$01
	.byte	$01
	.byte	$01
	.byte	$01
	.byte	$01
	.byte	$01
	.byte	$01
	.byte	$01
	.byte	$01
	.byte	$01
	.byte	$01
	.byte	$01
	.byte	$01
	.byte	$01
	.byte	$01
	.byte	$01
	.byte	$01
	.byte	$01
	.byte	$01
	.byte	$01
	.byte	$01
	.byte	$01
	.byte	$01
	.byte	$01
	.byte	$01
	.byte	$01
	.byte	$01
	.byte	$01
	.byte	$01
	.byte	$01
	.byte	$01
	.byte	$01
	.byte	$01
_playerFrames:
	.byte	$08
	.byte	$09
	.byte	$18
	.byte	$19
	.byte	$28
	.byte	$29
	.byte	$38
	.byte	$39
_enemyFrames:
	.byte	$06
	.byte	$07
	.byte	$16
	.byte	$17
	.byte	$26
	.byte	$27
	.byte	$36
	.byte	$37
_enemySpriteDataTemplate:
	.byte	$00
	.byte	$00
	.byte	$00
	.byte	$03
	.byte	$08
	.byte	$00
	.byte	$00
	.byte	$03
	.byte	$00
	.byte	$08
	.byte	$00
	.byte	$03
	.byte	$08
	.byte	$08
	.byte	$00
	.byte	$03
	.byte	$80

.segment	"BSS"

.segment	"ZEROPAGE"
.segment	"BSS"
.segment	"ZEROPAGE"
_oam_off:
	.res	1,$00
.segment	"ZEROPAGE"
_playerX:
	.res	1,$00
.segment	"ZEROPAGE"
_playerY:
	.res	1,$00
.segment	"ZEROPAGE"
_frameCount:
	.res	1,$00
.segment	"ZEROPAGE"
_i:
	.res	1,$00
.segment	"ZEROPAGE"
_collisionIndex:
	.res	2,$00
.segment	"ZEROPAGE"
_leftSide:
	.res	1,$00
.segment	"ZEROPAGE"
_rightSide:
	.res	1,$00
.segment	"ZEROPAGE"
_topSide:
	.res	1,$00
.segment	"ZEROPAGE"
_bottomSide:
	.res	1,$00
.segment	"BSS"
_pad:
	.res	1,$00
.segment	"BSS"
_oamSpriteIndex:
	.res	1,$00
.segment	"BSS"
_touch:
	.res	1,$00
.segment	"BSS"
_palSprites:
	.res	4,$00
.segment	"BSS"
_palBG:
	.res	4,$00
.segment	"BSS"
_horizontalCollideCheck:
	.res	1,$00
.segment	"BSS"
_playerDir:
	.res	1,$00
.segment	"BSS"
_playerEnemyColliding:
	.res	1,$00
.segment	"BSS"
_potionDirection:
	.res	1,$00
.segment	"BSS"
_numEnemies:
	.res	1,$00
.segment	"BSS"
_enemyTop:
	.res	1,$00
.segment	"BSS"
_enemyBottom:
	.res	1,$00
.segment	"BSS"
_enemyLeft:
	.res	1,$00
.segment	"BSS"
_enemyRight:
	.res	1,$00
.segment	"BSS"
_enemyData:
	.res	100,$00
.segment	"BSS"
_enemySpriteData:
	.res	170,$00
.segment	"BSS"
_currentEnemy:
	.res	2,$00

; ---------------------------------------------------------------
; void __near__ killPotion (void)
; ---------------------------------------------------------------

.segment	"CODE"

.proc	_killPotion: near

.segment	"CODE"

;
; potionIsActive = 0;
;
	lda     #$00
	sta     _potionIsActive
;
; potionX = -8;
;
	lda     #$F8
	sta     _potionX
;
; potionY = -8;
;
	sta     _potionY
;
; }
;
	rts

.endproc

; ---------------------------------------------------------------
; void __near__ setupMap (void)
; ---------------------------------------------------------------

.segment	"CODE"

.proc	_setupMap: near

.segment	"RODATA"

L054D:
	.byte	$00
	.byte	$00
	.byte	$00
	.byte	$40
	.res	1,$00

.segment	"CODE"

;
; u8 mapX = 0;
;
	jsr     decsp2
	lda     #$00
	jsr     pusha
;
; u8 mapY = 0;
;
	jsr     pusha
;
; u16 index = 0;
;
	jsr     push0
;
; enemy newEnemy = { 0, 0, 0, PAD_LEFT };
;
	jsr     decsp5
	ldy     #$04
L0552:	lda     L054D,y
	sta     (sp),y
	dey
	bpl     L0552
;
; enemyIndex = 0;
;
	lda     #$00
	sta     _enemyIndex
;
; for ( index; index <= COLLISION_MAP_SIZE; ++index ) {
;
L0555:	ldy     #$06
	lda     (sp),y
	cmp     #$03
	bne     L055B
	dey
	lda     (sp),y
	cmp     #$C1
L055B:	jcs     L0556
;
; collByte = collisionMap[index];
;
	lda     #<(_collisionMap)
	ldy     #$05
	clc
	adc     (sp),y
	sta     ptr1
	lda     #>(_collisionMap)
	iny
	adc     (sp),y
	sta     ptr1+1
	ldy     #$00
	lda     (ptr1),y
	ldy     #$0A
	sta     (sp),y
;
; if ( collByte == TILE_PLAYERSTART ) {
;
	cmp     #$03
	bne     L08F7
;
; playerX = mapX << 3;
;
	ldy     #$08
	lda     (sp),y
	asl     a
	asl     a
	asl     a
	sta     _playerX
;
; playerY = (mapY << 3) - 1;
;
	dey
	lda     (sp),y
	asl     a
	asl     a
	asl     a
	sec
	sbc     #$01
	sta     _playerY
;
; if ( ( collByte == TILE_ENEMY1START_RIGHT ) || ( collByte == TILE_ENEMY1START_LEFT ) ) {
;
	ldy     #$0A
L08F7:	lda     (sp),y
	cmp     #$05
	beq     L08F8
	cmp     #$04
	jne     L0568
;
; enemyData[enemyIndex] = newEnemy;
;
L08F8:	ldx     #$00
	lda     _enemyIndex
	jsr     mulax5
	clc
	adc     #<(_enemyData)
	tay
	txa
	adc     #>(_enemyData)
	tax
	tya
	jsr     pushax
	lda     sp
	ldx     sp+1
	clc
	adc     #$02
	bcc     L0570
	inx
L0570:	jsr     pushax
	ldx     #$00
	lda     #$05
	jsr     _memcpy
;
; enemyData[enemyIndex].x = mapX << 3;
;
	ldx     #$00
	lda     _enemyIndex
	jsr     mulax5
	clc
	adc     #<(_enemyData)
	sta     ptr1
	txa
	adc     #>(_enemyData)
	sta     ptr1+1
	ldy     #$08
	lda     (sp),y
	asl     a
	asl     a
	asl     a
	ldy     #$00
	sta     (ptr1),y
;
; enemyData[enemyIndex].y = (mapY << 3) - 1;
;
	ldx     #$00
	lda     _enemyIndex
	jsr     mulax5
	clc
	adc     #<(_enemyData)
	sta     ptr1
	txa
	adc     #>(_enemyData)
	sta     ptr1+1
	ldy     #$07
	lda     (sp),y
	asl     a
	asl     a
	asl     a
	sec
	sbc     #$01
	ldy     #$01
	sta     (ptr1),y
;
; enemyData[enemyIndex].direction = ( collByte == TILE_ENEMY1START_RIGHT ) ? PAD_RIGHT : PAD_LEFT;
;
	ldx     #$00
	lda     _enemyIndex
	jsr     mulax5
	clc
	adc     #<(_enemyData)
	sta     ptr1
	txa
	adc     #>(_enemyData)
	sta     ptr1+1
	ldy     #$0A
	lda     (sp),y
	cmp     #$05
	bne     L08F9
	lda     #$80
	jmp     L08FA
L08F9:	lda     #$40
L08FA:	ldy     #$03
	sta     (ptr1),y
;
; enemyData[enemyIndex].collidingWithPotion = 0;
;
	ldx     #$00
	lda     _enemyIndex
	jsr     mulax5
	clc
	adc     #<(_enemyData)
	sta     ptr1
	txa
	adc     #>(_enemyData)
	sta     ptr1+1
	lda     #$00
	iny
	sta     (ptr1),y
;
; for ( k = 0; k < ENEMY_DATA_SIZE; ++k ) {
;
	ldy     #$09
L08F5:	sta     (sp),y
	lda     (sp),y
	cmp     #$11
	bcs     L08FB
;
; enemySpriteData[enemyIndex][k] = enemySpriteDataTemplate[k];
;
	lda     _enemyIndex
	jsr     pusha0
	lda     #$11
	jsr     tosmula0
	clc
	adc     #<(_enemySpriteData)
	sta     ptr1
	txa
	adc     #>(_enemySpriteData)
	sta     ptr1+1
	ldy     #$09
	lda     (sp),y
	clc
	adc     ptr1
	ldx     ptr1+1
	bcc     L08F4
	inx
L08F4:	jsr     pushax
	ldy     #$0B
	lda     (sp),y
	tay
	lda     _enemySpriteDataTemplate,y
	ldy     #$00
	jsr     staspidx
;
; for ( k = 0; k < ENEMY_DATA_SIZE; ++k ) {
;
	ldy     #$09
	clc
	lda     #$01
	adc     (sp),y
	jmp     L08F5
;
; setSpriteFrame(enemySpriteData[enemyIndex], enemyFrames[0]);
;
L08FB:	lda     _enemyIndex
	jsr     pusha0
	lda     #$11
	jsr     tosmula0
	clc
	adc     #<(_enemySpriteData)
	tay
	txa
	adc     #>(_enemySpriteData)
	tax
	tya
	jsr     pushax
	lda     #<(_enemyFrames)
	ldx     #>(_enemyFrames)
	jsr     _setSpriteFrame
;
; ++enemyIndex;
;
	inc     _enemyIndex
;
; ++mapX;
;
L0568:	ldy     #$08
	clc
	lda     #$01
	adc     (sp),y
	sta     (sp),y
;
; if ( mapX >= 32 ) {
;
	cmp     #$20
	bcc     L0557
;
; mapX = 0;
;
	lda     #$00
	sta     (sp),y
;
; ++mapY;
;
	dey
	clc
	lda     #$01
	adc     (sp),y
	sta     (sp),y
;
; for ( index; index <= COLLISION_MAP_SIZE; ++index ) {
;
L0557:	ldy     #$05
	ldx     #$00
	lda     #$01
	jsr     addeqysp
	jmp     L0555
;
; numEnemies = enemyIndex;
;
L0556:	lda     _enemyIndex
	sta     _numEnemies
;
; }
;
	ldy     #$0B
	jmp     addysp

.endproc

; ---------------------------------------------------------------
; void __near__ __fastcall__ setSpriteFrame (__near__ unsigned char *, __near__ const unsigned char *)
; ---------------------------------------------------------------

.segment	"CODE"

.proc	_setSpriteFrame: near

.segment	"CODE"

;
; void __fastcall__ setSpriteFrame(u8 *sprite, const u8 *frame) {
;
	jsr     pushax
;
; sprite[2] = frame[0];
;
	ldy     #$05
	jsr     pushwysp
	ldy     #$03
	lda     (sp),y
	sta     ptr1+1
	dey
	lda     (sp),y
	sta     ptr1
	ldy     #$00
	lda     (ptr1),y
	ldy     #$02
	jsr     staspidx
;
; sprite[6] = frame[1];
;
	ldy     #$05
	jsr     pushwysp
	ldy     #$03
	lda     (sp),y
	sta     ptr1+1
	dey
	lda     (sp),y
	sta     ptr1
	dey
	lda     (ptr1),y
	ldy     #$06
	jsr     staspidx
;
; sprite[10] = frame[2];
;
	ldy     #$05
	jsr     pushwysp
	ldy     #$03
	lda     (sp),y
	sta     ptr1+1
	dey
	lda     (sp),y
	sta     ptr1
	lda     (ptr1),y
	ldy     #$0A
	jsr     staspidx
;
; sprite[14] = frame[3];
;
	ldy     #$05
	jsr     pushwysp
	ldy     #$03
	lda     (sp),y
	sta     ptr1+1
	dey
	lda     (sp),y
	sta     ptr1
	iny
	lda     (ptr1),y
	ldy     #$0E
	jsr     staspidx
;
; }
;
	jmp     incsp4

.endproc

; ---------------------------------------------------------------
; void __near__ __fastcall__ setSpritePalette (__near__ unsigned char *, unsigned char)
; ---------------------------------------------------------------

.segment	"CODE"

.proc	_setSpritePalette: near

.segment	"CODE"

;
; void __fastcall__ setSpritePalette(u8 *sprite, u8 palette) {
;
	jsr     pusha
;
; for ( i = 3; i <= 15; i = i + 4 ) {
;
	jsr     decsp1
	lda     #$03
	ldy     #$00
L08FC:	sta     (sp),y
	cmp     #$10
	bcs     L05B3
;
; sprite[i] &= ~(0x3);
;
	lda     (sp),y
	clc
	ldy     #$02
	adc     (sp),y
	sta     ptr1
	lda     #$00
	iny
	adc     (sp),y
	sta     ptr1+1
	ldy     #$00
	lda     (ptr1),y
	and     #$FC
	sta     (ptr1),y
;
; sprite[i] |= palette;
;
	lda     (sp),y
	clc
	ldy     #$02
	adc     (sp),y
	pha
	lda     #$00
	iny
	adc     (sp),y
	tax
	pla
	jsr     pushax
	sta     ptr1
	stx     ptr1+1
	ldy     #$00
	lda     (ptr1),y
	sta     ptr1
	ldy     #$03
	lda     (sp),y
	ora     ptr1
	ldy     #$00
	jsr     staspidx
;
; for ( i = 3; i <= 15; i = i + 4 ) {
;
	ldy     #$00
	lda     (sp),y
	clc
	adc     #$04
	jmp     L08FC
;
; }
;
L05B3:	jmp     incsp4

.endproc

; ---------------------------------------------------------------
; void __near__ __fastcall__ setSpritePriority (__near__ unsigned char *, unsigned char)
; ---------------------------------------------------------------

.segment	"CODE"

.proc	_setSpritePriority: near

.segment	"CODE"

;
; void __fastcall__ setSpritePriority(u8 *sprite, u8 priority) {
;
	jsr     pusha
;
; if ( priority ) {
;
	ldy     #$00
	lda     (sp),y
	beq     L05C4
;
; sprite[3] |= OAM_BEHIND;
;
	ldy     #$02
	lda     (sp),y
	sta     ptr1+1
	dey
	lda     (sp),y
	sta     ptr1
	ldy     #$03
	lda     (ptr1),y
	ora     #$20
	sta     (ptr1),y
;
; sprite[7] |= OAM_BEHIND;
;
	dey
	lda     (sp),y
	sta     ptr1+1
	dey
	lda     (sp),y
	sta     ptr1
	ldy     #$07
	lda     (ptr1),y
	ora     #$20
	sta     (ptr1),y
;
; sprite[11] |= OAM_BEHIND;
;
	ldy     #$02
	lda     (sp),y
	sta     ptr1+1
	dey
	lda     (sp),y
	sta     ptr1
	ldy     #$0B
	lda     (ptr1),y
	ora     #$20
	sta     (ptr1),y
;
; sprite[15] |= OAM_BEHIND;
;
	ldy     #$02
	lda     (sp),y
	sta     ptr1+1
	dey
	lda     (sp),y
	sta     ptr1
	ldy     #$0F
	lda     (ptr1),y
	ora     #$20
;
; } else {
;
	jmp     L08FD
;
; sprite[3] &= ~OAM_BEHIND;
;
L05C4:	ldy     #$02
	lda     (sp),y
	sta     ptr1+1
	dey
	lda     (sp),y
	sta     ptr1
	ldy     #$03
	lda     (ptr1),y
	and     #$DF
	sta     (ptr1),y
;
; sprite[7] &= ~OAM_BEHIND;
;
	dey
	lda     (sp),y
	sta     ptr1+1
	dey
	lda     (sp),y
	sta     ptr1
	ldy     #$07
	lda     (ptr1),y
	and     #$DF
	sta     (ptr1),y
;
; sprite[11] &= ~OAM_BEHIND;
;
	ldy     #$02
	lda     (sp),y
	sta     ptr1+1
	dey
	lda     (sp),y
	sta     ptr1
	ldy     #$0B
	lda     (ptr1),y
	and     #$DF
	sta     (ptr1),y
;
; sprite[15] &= ~OAM_BEHIND;
;
	ldy     #$02
	lda     (sp),y
	sta     ptr1+1
	dey
	lda     (sp),y
	sta     ptr1
	ldy     #$0F
	lda     (ptr1),y
	and     #$DF
L08FD:	sta     (ptr1),y
;
; }
;
	jmp     incsp3

.endproc

; ---------------------------------------------------------------
; void __near__ __fastcall__ flipSprite (__near__ unsigned char *, unsigned char)
; ---------------------------------------------------------------

.segment	"CODE"

.proc	_flipSprite: near

.segment	"CODE"

;
; void __fastcall__ flipSprite(u8 *sprite, u8 flip) {
;
	jsr     pusha
;
; if ( flip ) {
;
	ldy     #$00
	lda     (sp),y
	jeq     L05E0
;
; sprite[0] = 8;
;
	ldy     #$02
	lda     (sp),y
	sta     ptr1+1
	dey
	lda     (sp),y
	sta     ptr1
	lda     #$08
	dey
	sta     (ptr1),y
;
; sprite[3] |= OAM_FLIP_H;
;
	ldy     #$02
	lda     (sp),y
	sta     ptr1+1
	dey
	lda     (sp),y
	sta     ptr1
	ldy     #$03
	lda     (ptr1),y
	ora     #$40
	sta     (ptr1),y
;
; sprite[4] = 0;
;
	dey
	lda     (sp),y
	sta     ptr1+1
	dey
	lda     (sp),y
	sta     ptr1
	lda     #$00
	ldy     #$04
	sta     (ptr1),y
;
; sprite[7] |= OAM_FLIP_H;
;
	ldy     #$02
	lda     (sp),y
	sta     ptr1+1
	dey
	lda     (sp),y
	sta     ptr1
	ldy     #$07
	lda     (ptr1),y
	ora     #$40
	sta     (ptr1),y
;
; sprite[8] = 8;
;
	ldy     #$02
	lda     (sp),y
	sta     ptr1+1
	dey
	lda     (sp),y
	sta     ptr1
	lda     #$08
	tay
	sta     (ptr1),y
;
; sprite[11] |= OAM_FLIP_H;
;
	ldy     #$02
	lda     (sp),y
	sta     ptr1+1
	dey
	lda     (sp),y
	sta     ptr1
	ldy     #$0B
	lda     (ptr1),y
	ora     #$40
	sta     (ptr1),y
;
; sprite[12] = 0;
;
	ldy     #$02
	lda     (sp),y
	sta     ptr1+1
	dey
	lda     (sp),y
	sta     ptr1
	lda     #$00
	ldy     #$0C
	sta     (ptr1),y
;
; sprite[15] |= OAM_FLIP_H;
;
	ldy     #$02
	lda     (sp),y
	sta     ptr1+1
	dey
	lda     (sp),y
	sta     ptr1
	ldy     #$0F
	lda     (ptr1),y
	ora     #$40
;
; } else {
;
	jmp     L08FE
;
; sprite[0] = 0;
;
L05E0:	ldy     #$02
	lda     (sp),y
	sta     ptr1+1
	dey
	lda     (sp),y
	sta     ptr1
	lda     #$00
	dey
	sta     (ptr1),y
;
; sprite[3] &= ~OAM_FLIP_H;
;
	ldy     #$02
	lda     (sp),y
	sta     ptr1+1
	dey
	lda     (sp),y
	sta     ptr1
	ldy     #$03
	lda     (ptr1),y
	and     #$BF
	sta     (ptr1),y
;
; sprite[4] = 8;
;
	dey
	lda     (sp),y
	sta     ptr1+1
	dey
	lda     (sp),y
	sta     ptr1
	lda     #$08
	ldy     #$04
	sta     (ptr1),y
;
; sprite[7] &= ~OAM_FLIP_H;
;
	ldy     #$02
	lda     (sp),y
	sta     ptr1+1
	dey
	lda     (sp),y
	sta     ptr1
	ldy     #$07
	lda     (ptr1),y
	and     #$BF
	sta     (ptr1),y
;
; sprite[8] = 0;
;
	ldy     #$02
	lda     (sp),y
	sta     ptr1+1
	dey
	lda     (sp),y
	sta     ptr1
	lda     #$00
	ldy     #$08
	sta     (ptr1),y
;
; sprite[11] &= ~OAM_FLIP_H;
;
	ldy     #$02
	lda     (sp),y
	sta     ptr1+1
	dey
	lda     (sp),y
	sta     ptr1
	ldy     #$0B
	lda     (ptr1),y
	and     #$BF
	sta     (ptr1),y
;
; sprite[12] = 8;
;
	ldy     #$02
	lda     (sp),y
	sta     ptr1+1
	dey
	lda     (sp),y
	sta     ptr1
	lda     #$08
	ldy     #$0C
	sta     (ptr1),y
;
; sprite[15] &= ~OAM_FLIP_H;  
;
	ldy     #$02
	lda     (sp),y
	sta     ptr1+1
	dey
	lda     (sp),y
	sta     ptr1
	ldy     #$0F
	lda     (ptr1),y
	and     #$BF
L08FE:	sta     (ptr1),y
;
; }
;
	jmp     incsp3

.endproc

; ---------------------------------------------------------------
; unsigned char __near__ __fastcall__ spriteCount (void)
; ---------------------------------------------------------------

.segment	"CODE"

.proc	_spriteCount: near

.segment	"CODE"

;
; ++enemySpriteCount;
;
	inc     _enemySpriteCount
;
; if ( enemySpriteCount >= numEnemies ) {
;
	ldx     #$00
	lda     _enemySpriteCount
	cmp     _numEnemies
	bcc     L08FF
;
; enemySpriteCount = 0;
;
	stx     _enemySpriteCount
;
; return enemySpriteCount;
;
L08FF:	lda     _enemySpriteCount
;
; }
;
	rts

.endproc

; ---------------------------------------------------------------
; void __near__ updateEnemySprites (void)
; ---------------------------------------------------------------

.segment	"CODE"

.proc	_updateEnemySprites: near

.segment	"CODE"

;
; for ( i = 0; i < numEnemies; ++i ) {
;
	lda     #$00
	sta     _i
L0901:	lda     _i
	cmp     _numEnemies
	bcc     L0904
;
; }
;
	rts
;
; spriteFlickerIndex = spriteCount();
;
L0904:	jsr     _spriteCount
	sta     _spriteFlickerIndex
;
; if ( ( frameCount & 0x0F ) == 0x0F ) {
;
	lda     _frameCount
	ldx     #$00
	and     #$0F
	cmp     #$0F
	bne     L0902
;
; enemyData[spriteFlickerIndex].frame ^= 1;
;
	lda     _spriteFlickerIndex
	jsr     mulax5
	clc
	adc     #<(_enemyData)
	sta     ptr1
	txa
	adc     #>(_enemyData)
	sta     ptr1+1
	ldy     #$02
	lda     (ptr1),y
	eor     #$01
	sta     (ptr1),y
;
; setSpriteFrame(enemySpriteData[spriteFlickerIndex], enemyFrames[enemyData[spriteFlickerIndex].frame]);
;
	lda     _spriteFlickerIndex
	jsr     pusha0
	lda     #$11
	jsr     tosmula0
	clc
	adc     #<(_enemySpriteData)
	tay
	txa
	adc     #>(_enemySpriteData)
	tax
	tya
	jsr     pushax
	ldx     #$00
	lda     _spriteFlickerIndex
	jsr     mulax5
	clc
	adc     #<(_enemyData)
	sta     ptr1
	txa
	adc     #>(_enemyData)
	sta     ptr1+1
	ldy     #$02
	ldx     #$00
	lda     (ptr1),y
	jsr     aslax2
	clc
	adc     #<(_enemyFrames)
	tay
	txa
	adc     #>(_enemyFrames)
	tax
	tya
	jsr     _setSpriteFrame
;
; if ( enemyData[spriteFlickerIndex].collidingWithPotion ) {
;
	ldx     #$00
L0902:	lda     _spriteFlickerIndex
	jsr     mulax5
	clc
	adc     #<(_enemyData)
	sta     ptr1
	txa
	adc     #>(_enemyData)
	sta     ptr1+1
	ldy     #$04
	lda     (ptr1),y
	beq     L0903
;
; setSpritePalette(enemySpriteData[spriteFlickerIndex], 0x0);
;
	lda     _spriteFlickerIndex
	jsr     pusha0
	lda     #$11
	jsr     tosmula0
	clc
	adc     #<(_enemySpriteData)
	tay
	txa
	adc     #>(_enemySpriteData)
	tax
	tya
	jsr     pushax
	lda     #$00
;
; } else {
;
	jmp     L0900
;
; setSpritePalette(enemySpriteData[spriteFlickerIndex], 0x3);
;
L0903:	lda     _spriteFlickerIndex
	jsr     pusha0
	lda     #$11
	jsr     tosmula0
	clc
	adc     #<(_enemySpriteData)
	tay
	txa
	adc     #>(_enemySpriteData)
	tax
	tya
	jsr     pushax
	lda     #$03
L0900:	jsr     _setSpritePalette
;
; setSpritePriority(enemySpriteData[i], sprPriorityToggle);
;
	lda     _i
	jsr     pusha0
	lda     #$11
	jsr     tosmula0
	clc
	adc     #<(_enemySpriteData)
	tay
	txa
	adc     #>(_enemySpriteData)
	tax
	tya
	jsr     pushax
	lda     _sprPriorityToggle
	jsr     _setSpritePriority
;
; sprPriorityToggle ^= 1;
;
	lda     _sprPriorityToggle
	eor     #$01
	sta     _sprPriorityToggle
;
; oamSpriteIndex = oam_meta_spr(enemyData[spriteFlickerIndex].x, enemyData[spriteFlickerIndex].y, oamSpriteIndex, enemySpriteData[spriteFlickerIndex]); 
;
	jsr     decsp3
	ldx     #$00
	lda     _spriteFlickerIndex
	jsr     mulax5
	sta     ptr1
	txa
	clc
	adc     #>(_enemyData)
	sta     ptr1+1
	ldy     #<(_enemyData)
	lda     (ptr1),y
	ldy     #$02
	sta     (sp),y
	ldx     #$00
	lda     _spriteFlickerIndex
	jsr     mulax5
	clc
	adc     #<(_enemyData)
	sta     ptr1
	txa
	adc     #>(_enemyData)
	sta     ptr1+1
	dey
	lda     (ptr1),y
	sta     (sp),y
	lda     _oamSpriteIndex
	dey
	sta     (sp),y
	lda     _spriteFlickerIndex
	jsr     pusha0
	lda     #$11
	jsr     tosmula0
	clc
	adc     #<(_enemySpriteData)
	tay
	txa
	adc     #>(_enemySpriteData)
	tax
	tya
	jsr     _oam_meta_spr
	sta     _oamSpriteIndex
;
; for ( i = 0; i < numEnemies; ++i ) {
;
	inc     _i
	jmp     L0901

.endproc

; ---------------------------------------------------------------
; void __near__ updatePlayerSprite (void)
; ---------------------------------------------------------------

.segment	"CODE"

.proc	_updatePlayerSprite: near

.segment	"CODE"

;
; if ( pad & PAD_RIGHT ) {
;
	lda     _pad
	and     #$80
	beq     L0906
;
; flipSprite(playerSpriteData, 1);
;
	lda     #<(_playerSpriteData)
	ldx     #>(_playerSpriteData)
	jsr     pushax
	lda     #$01
;
; } else if ( pad & PAD_LEFT ) {
;
	jmp     L0905
L0906:	lda     _pad
	and     #$40
	beq     L0907
;
; flipSprite(playerSpriteData, 0);
;
	lda     #<(_playerSpriteData)
	ldx     #>(_playerSpriteData)
	jsr     pushax
	lda     #$00
L0905:	jsr     _flipSprite
;
; if ( ( frameCount & 0x0F ) == 0x0F ) {
;
L0907:	lda     _frameCount
	and     #$0F
	cmp     #$0F
	bne     L0659
;
; playerFrame ^= 1;
;
	lda     _playerFrame
	eor     #$01
	sta     _playerFrame
;
; setSpriteFrame(playerSpriteData, playerFrames[playerFrame]);
;
	lda     #<(_playerSpriteData)
	ldx     #>(_playerSpriteData)
	jsr     pushax
	ldx     #$00
	lda     _playerFrame
	jsr     aslax2
	clc
	adc     #<(_playerFrames)
	tay
	txa
	adc     #>(_playerFrames)
	tax
	tya
	jsr     _setSpriteFrame
;
; oamSpriteIndex = oam_meta_spr(playerX, playerY, oamSpriteIndex, playerSpriteData); 
;
L0659:	jsr     decsp3
	lda     _playerX
	ldy     #$02
	sta     (sp),y
	lda     _playerY
	dey
	sta     (sp),y
	lda     _oamSpriteIndex
	dey
	sta     (sp),y
	lda     #<(_playerSpriteData)
	ldx     #>(_playerSpriteData)
	jsr     _oam_meta_spr
	sta     _oamSpriteIndex
;
; }
;
	rts

.endproc

; ---------------------------------------------------------------
; void __near__ updatePotionSprite (void)
; ---------------------------------------------------------------

.segment	"CODE"

.proc	_updatePotionSprite: near

.segment	"CODE"

;
; oamSpriteIndex = oam_meta_spr(potionX, potionY, oamSpriteIndex, potionSpriteData); 
;
	jsr     decsp3
	lda     _potionX
	ldy     #$02
	sta     (sp),y
	lda     _potionY
	dey
	sta     (sp),y
	lda     _oamSpriteIndex
	dey
	sta     (sp),y
	lda     #<(_potionSpriteData)
	ldx     #>(_potionSpriteData)
	jsr     _oam_meta_spr
	sta     _oamSpriteIndex
;
; }
;
	rts

.endproc

; ---------------------------------------------------------------
; void __near__ __fastcall__ four_Sides (unsigned char, unsigned char)
; ---------------------------------------------------------------

.segment	"CODE"

.proc	_four_Sides: near

.segment	"CODE"

;
; void __fastcall__ four_Sides(u8 originX, u8 originY) {
;
	jsr     pusha
;
; leftSide = originX + 1;
;
	ldy     #$01
	lda     (sp),y
	clc
	adc     #$01
	sta     _leftSide
;
; rightSide = originX + 15;
;
	lda     (sp),y
	clc
	adc     #$0F
	sta     _rightSide
;
; topSide = originY;
;
	dey
	lda     (sp),y
	sta     _topSide
;
; bottomSide = originY + 14;
;
	lda     (sp),y
	clc
	adc     #$0E
	sta     _bottomSide
;
; }
;
	jmp     incsp2

.endproc

; ---------------------------------------------------------------
; void __near__ __fastcall__ four_SidesSmall (unsigned char, unsigned char)
; ---------------------------------------------------------------

.segment	"CODE"

.proc	_four_SidesSmall: near

.segment	"CODE"

;
; void __fastcall__ four_SidesSmall(u8 originX, u8 originY) {
;
	jsr     pusha
;
; leftSide = originX + 1;
;
	ldy     #$01
	lda     (sp),y
	clc
	adc     #$01
	sta     _leftSide
;
; rightSide = originX + 7;
;
	lda     (sp),y
	clc
	adc     #$07
	sta     _rightSide
;
; topSide = originY;
;
	dey
	lda     (sp),y
	sta     _topSide
;
; bottomSide = originY + 7;
;
	lda     (sp),y
	clc
	adc     #$07
	sta     _bottomSide
;
; }
;
	jmp     incsp2

.endproc

; ---------------------------------------------------------------
; void __near__ __fastcall__ getCollisionIndex (unsigned char, unsigned char)
; ---------------------------------------------------------------

.segment	"CODE"

.proc	_getCollisionIndex: near

.segment	"CODE"

;
; void __fastcall__ getCollisionIndex(u8 screenX, u8 screenY) {
;
	jsr     pusha
;
; collisionIndex = ( screenX >> 3 ) + ( ( screenY >> 3 ) << 5);
;
	ldy     #$01
	ldx     #$00
	lda     (sp),y
	lsr     a
	lsr     a
	lsr     a
	sta     ptr1
	stx     ptr1+1
	lda     (sp,x)
	lsr     a
	lsr     a
	lsr     a
	jsr     aslax4
	stx     tmp1
	asl     a
	rol     tmp1
	clc
	adc     ptr1
	sta     _collisionIndex
	lda     tmp1
	adc     ptr1+1
	sta     _collisionIndex+1
;
; }
;
	jmp     incsp2

.endproc

; ---------------------------------------------------------------
; unsigned char __near__ __fastcall__ smallCollideCheckVertical (unsigned char, unsigned char, unsigned char)
; ---------------------------------------------------------------

.segment	"CODE"

.proc	_smallCollideCheckVertical: near

.segment	"CODE"

;
; u8 __fastcall__ smallCollideCheckVertical(u8 originX, u8 originY, u8 direction) {
;
	jsr     pusha
;
; leftSide = originX ;
;
	ldy     #$02
	lda     (sp),y
	sta     _leftSide
;
; rightSide = originX + 8;
;
	lda     (sp),y
	clc
	adc     #$08
	sta     _rightSide
;
; topSide = originY;
;
	dey
	lda     (sp),y
	sta     _topSide
;
; bottomSide = originY + 8;
;
	lda     (sp),y
	clc
	adc     #$08
	sta     _bottomSide
;
; collisionIndex = 0;
;
	lda     #$00
	sta     _collisionIndex
	sta     _collisionIndex+1
;
; if ( ( (direction & PAD_UP) != 0) ) {
;
	dey
	lda     (sp),y
	and     #$10
	beq     L090A
;
; getCollisionIndex(rightSide, topSide);
;
	lda     _rightSide
	jsr     pusha
	lda     _topSide
	jsr     _getCollisionIndex
;
; if ( collisionMap[collisionIndex] == 0 ) {
;
	lda     #<(_collisionMap)
	sta     ptr1
	lda     #>(_collisionMap)
	clc
	adc     _collisionIndex+1
	sta     ptr1+1
	ldy     _collisionIndex
	lda     (ptr1),y
	bne     L06B1
;
; getCollisionIndex(leftSide, topSide);
;
	lda     _leftSide
	jsr     pusha
	lda     _topSide
;
; } else if ( (direction & PAD_DOWN) != 0 ) {
;
	jmp     L0908
L090A:	lda     (sp),y
	and     #$20
	beq     L06B1
;
; getCollisionIndex(rightSide, bottomSide);
;
	lda     _rightSide
	jsr     pusha
	lda     _bottomSide
	jsr     _getCollisionIndex
;
; if ( collisionMap[collisionIndex] == 0 ) {
;
	lda     #<(_collisionMap)
	sta     ptr1
	lda     #>(_collisionMap)
	clc
	adc     _collisionIndex+1
	sta     ptr1+1
	ldy     _collisionIndex
	lda     (ptr1),y
	bne     L06B1
;
; getCollisionIndex(leftSide, bottomSide);
;
	lda     _leftSide
	jsr     pusha
	lda     _bottomSide
L0908:	jsr     _getCollisionIndex
;
; if ( collisionIndex ) {
;
L06B1:	lda     _collisionIndex
	ora     _collisionIndex+1
	beq     L06B7
;
; return collisionMap[collisionIndex]; 
;
	lda     #<(_collisionMap)
	sta     ptr1
	lda     #>(_collisionMap)
	clc
	adc     _collisionIndex+1
	sta     ptr1+1
	ldy     _collisionIndex
	ldx     #$00
	lda     (ptr1),y
	jmp     incsp3
;
; return 0;
;
L06B7:	tax
;
; }
;
	jmp     incsp3

.endproc

; ---------------------------------------------------------------
; unsigned char __near__ __fastcall__ collideCheckVertical (unsigned char, unsigned char, unsigned char)
; ---------------------------------------------------------------

.segment	"CODE"

.proc	_collideCheckVertical: near

.segment	"CODE"

;
; u8 __fastcall__ collideCheckVertical(u8 originX, u8 originY, u8 direction) {
;
	jsr     pusha
;
; leftSide = originX + 1;
;
	ldy     #$02
	lda     (sp),y
	clc
	adc     #$01
	sta     _leftSide
;
; rightSide = originX + 15;
;
	lda     (sp),y
	clc
	adc     #$0F
	sta     _rightSide
;
; topSide = originY + 1;
;
	dey
	lda     (sp),y
	clc
	adc     #$01
	sta     _topSide
;
; bottomSide = originY + 17;
;
	lda     (sp),y
	clc
	adc     #$11
	sta     _bottomSide
;
; collisionIndex = 0;
;
	lda     #$00
	sta     _collisionIndex
	sta     _collisionIndex+1
;
; if ( ( (direction & PAD_UP) != 0) ) {
;
	dey
	lda     (sp),y
	and     #$10
	beq     L090D
;
; getCollisionIndex(rightSide, topSide);
;
	lda     _rightSide
	jsr     pusha
	lda     _topSide
	jsr     _getCollisionIndex
;
; if ( collisionMap[collisionIndex] == 0 ) {
;
	lda     #<(_collisionMap)
	sta     ptr1
	lda     #>(_collisionMap)
	clc
	adc     _collisionIndex+1
	sta     ptr1+1
	ldy     _collisionIndex
	lda     (ptr1),y
	bne     L06E2
;
; getCollisionIndex(leftSide, topSide);
;
	lda     _leftSide
	jsr     pusha
	lda     _topSide
;
; } else if ( (direction & PAD_DOWN) != 0 ) {
;
	jmp     L090B
L090D:	lda     (sp),y
	and     #$20
	beq     L06E2
;
; getCollisionIndex(rightSide, bottomSide);
;
	lda     _rightSide
	jsr     pusha
	lda     _bottomSide
	jsr     _getCollisionIndex
;
; if ( collisionMap[collisionIndex] == 0 ) {
;
	lda     #<(_collisionMap)
	sta     ptr1
	lda     #>(_collisionMap)
	clc
	adc     _collisionIndex+1
	sta     ptr1+1
	ldy     _collisionIndex
	lda     (ptr1),y
	bne     L06E2
;
; getCollisionIndex(leftSide, bottomSide);
;
	lda     _leftSide
	jsr     pusha
	lda     _bottomSide
L090B:	jsr     _getCollisionIndex
;
; if ( collisionIndex ) {
;
L06E2:	lda     _collisionIndex
	ora     _collisionIndex+1
	beq     L06E8
;
; return collisionMap[collisionIndex]; 
;
	lda     #<(_collisionMap)
	sta     ptr1
	lda     #>(_collisionMap)
	clc
	adc     _collisionIndex+1
	sta     ptr1+1
	ldy     _collisionIndex
	ldx     #$00
	lda     (ptr1),y
	jmp     incsp3
;
; return 0;
;
L06E8:	tax
;
; }
;
	jmp     incsp3

.endproc

; ---------------------------------------------------------------
; void __near__ collideCheckHorizontal (unsigned char, unsigned char, unsigned char)
; ---------------------------------------------------------------

.segment	"CODE"

.proc	_collideCheckHorizontal: near

.segment	"CODE"

;
; void collideCheckHorizontal(u8 originX, u8 originY, u8 direction) {
;
	jsr     pusha
;
; leftSide = originX + 1;
;
	ldy     #$02
	lda     (sp),y
	clc
	adc     #$01
	sta     _leftSide
;
; rightSide = originX + 15;
;
	lda     (sp),y
	clc
	adc     #$0F
	sta     _rightSide
;
; topSide = originY + 4;
;
	dey
	lda     (sp),y
	clc
	adc     #$04
	sta     _topSide
;
; bottomSide = originY + 12;
;
	lda     (sp),y
	clc
	adc     #$0C
	sta     _bottomSide
;
; if ( ( (direction & PAD_LEFT) != 0 ) ) {
;
	dey
	lda     (sp),y
	and     #$40
	beq     L0910
;
; getCollisionIndex(leftSide, topSide);
;
	lda     _leftSide
	jsr     pusha
	lda     _topSide
	jsr     _getCollisionIndex
;
; if ( collisionMap[collisionIndex] == 0 ) {
;
	lda     #<(_collisionMap)
	sta     ptr1
	lda     #>(_collisionMap)
	clc
	adc     _collisionIndex+1
	sta     ptr1+1
	ldy     _collisionIndex
	lda     (ptr1),y
	bne     L0709
;
; getCollisionIndex(leftSide, bottomSide);
;
	lda     _leftSide
;
; } else if ( (direction & PAD_RIGHT) != 0 ) {
;
	jmp     L0912
L0910:	lda     (sp),y
	and     #$80
	beq     L0709
;
; getCollisionIndex(rightSide, topSide);
;
	lda     _rightSide
	jsr     pusha
	lda     _topSide
	jsr     _getCollisionIndex
;
; if ( collisionMap[collisionIndex] == 0 ) {
;
	lda     #<(_collisionMap)
	sta     ptr1
	lda     #>(_collisionMap)
	clc
	adc     _collisionIndex+1
	sta     ptr1+1
	ldy     _collisionIndex
	lda     (ptr1),y
	bne     L0709
;
; getCollisionIndex(rightSide, bottomSide);
;
	lda     _rightSide
L0912:	jsr     pusha
	lda     _bottomSide
	jsr     _getCollisionIndex
;
; horizontalCollideCheck = collisionMap[collisionIndex];
;
L0709:	lda     #<(_collisionMap)
	sta     ptr1
	lda     #>(_collisionMap)
	clc
	adc     _collisionIndex+1
	sta     ptr1+1
	ldy     _collisionIndex
	lda     (ptr1),y
	sta     _horizontalCollideCheck
;
; }
;
	jmp     incsp3

.endproc

; ---------------------------------------------------------------
; unsigned char __near__ __fastcall__ bgVertCollideCheck (__near__ unsigned char *, __near__ unsigned char *, unsigned char)
; ---------------------------------------------------------------

.segment	"CODE"

.proc	_bgVertCollideCheck: near

.segment	"CODE"

;
; u8 __fastcall__ bgVertCollideCheck(u8 *x, u8 *y, u8 dir) {
;
	jsr     pusha
;
; u8 colliding = collideCheckVertical(*x, *y, dir);
;
	jsr     decsp2
	ldy     #$06
	lda     (sp),y
	sta     ptr1+1
	dey
	lda     (sp),y
	sta     ptr1
	ldy     #$00
	lda     (ptr1),y
	iny
	sta     (sp),y
	ldy     #$04
	lda     (sp),y
	sta     ptr1+1
	dey
	lda     (sp),y
	sta     ptr1
	ldy     #$00
	lda     (ptr1),y
	sta     (sp),y
	ldy     #$02
	lda     (sp),y
	jsr     _collideCheckVertical
	jsr     pusha
;
; if ( colliding == 1 ) {
;
	ldx     #$00
	lda     (sp,x)
	cmp     #$01
	bne     L0915
;
; if ( dir & PAD_UP ) {
;
	tay
	lda     (sp),y
	and     #$10
	beq     L0721
;
; *y = (*y & 0xf8) + 7;
;
	ldy     #$05
	jsr     pushwysp
	ldy     #$05
	lda     (sp),y
	sta     ptr1+1
	dey
	lda     (sp),y
	sta     ptr1
	ldy     #$00
	lda     (ptr1),y
	and     #$F8
	clc
	adc     #$07
;
; } else {
;
	jmp     L0913
;
; *y = (*y & 0xf8) - 1;
;
L0721:	ldy     #$05
	jsr     pushwysp
	ldy     #$05
	lda     (sp),y
	sta     ptr1+1
	dey
	lda     (sp),y
	sta     ptr1
	ldy     #$00
	lda     (ptr1),y
	and     #$F8
	sec
	sbc     #$01
L0913:	jsr     staspidx
;
; return colliding;
;
	ldx     #$00
L0915:	lda     (sp,x)
;
; }
;
	jmp     incsp6

.endproc

; ---------------------------------------------------------------
; void __near__ __fastcall__ bgHorizCollideCheck (__near__ unsigned char *, __near__ unsigned char *, unsigned char)
; ---------------------------------------------------------------

.segment	"CODE"

.proc	_bgHorizCollideCheck: near

.segment	"CODE"

;
; void __fastcall__ bgHorizCollideCheck(u8 *x, u8 *y, u8 dir) {
;
	jsr     pusha
;
; collideCheckHorizontal(*x, *y, dir);
;
	jsr     decsp2
	ldy     #$06
	lda     (sp),y
	sta     ptr1+1
	dey
	lda     (sp),y
	sta     ptr1
	ldy     #$00
	lda     (ptr1),y
	iny
	sta     (sp),y
	ldy     #$04
	lda     (sp),y
	sta     ptr1+1
	dey
	lda     (sp),y
	sta     ptr1
	ldy     #$00
	lda     (ptr1),y
	sta     (sp),y
	ldy     #$02
	lda     (sp),y
	jsr     _collideCheckHorizontal
;
; if ( horizontalCollideCheck == 1 ) {
;
	lda     _horizontalCollideCheck
	cmp     #$01
	bne     L073B
;
; if ( dir & PAD_LEFT ) {
;
	ldy     #$00
	lda     (sp),y
	and     #$40
	beq     L0918
;
; *x = (*x & 0xf8) + 8;
;
	ldy     #$06
	jsr     pushwysp
	ldy     #$06
	lda     (sp),y
	sta     ptr1+1
	dey
	lda     (sp),y
	sta     ptr1
	ldy     #$00
	lda     (ptr1),y
	and     #$F8
	clc
	adc     #$08
;
; } else if ( dir & PAD_RIGHT ) {
;
	jmp     L0916
L0918:	lda     (sp),y
	and     #$80
	beq     L073B
;
; *x = (*x & 0xf8);
;
	ldy     #$06
	jsr     pushwysp
	ldy     #$06
	lda     (sp),y
	sta     ptr1+1
	dey
	lda     (sp),y
	sta     ptr1
	ldy     #$00
	lda     (ptr1),y
	and     #$F8
L0916:	jsr     staspidx
;
; }
;
L073B:	jmp     incsp5

.endproc

; ---------------------------------------------------------------
; void __near__ enemyCollideCheck (void)
; ---------------------------------------------------------------

.segment	"CODE"

.proc	_enemyCollideCheck: near

.segment	"CODE"

;
; enemyIndex = 0;
;
	lda     #$00
	sta     _enemyIndex
;
; enemyColliding = 0;
;
	sta     _enemyColliding
;
; while ( !enemyColliding && ( enemyIndex < numEnemies ) ) {
;
	jmp     L0747
;
; currentEnemy = &(enemyData[enemyIndex]);
;
L091A:	lda     _enemyIndex
	jsr     mulax5
	clc
	adc     #<(_enemyData)
	tay
	txa
	adc     #>(_enemyData)
	tax
	tya
	sta     _currentEnemy
	stx     _currentEnemy+1
;
; enemyTop = (*currentEnemy).y + 2;
;
	sta     ptr1
	stx     ptr1+1
	ldy     #$01
	lda     (ptr1),y
	clc
	adc     #$02
	sta     _enemyTop
;
; enemyBottom = (*currentEnemy).y + 14;
;
	lda     _currentEnemy
	sta     ptr1
	lda     _currentEnemy+1
	sta     ptr1+1
	lda     (ptr1),y
	clc
	adc     #$0E
	sta     _enemyBottom
;
; enemyLeft = (*currentEnemy).x + 2;
;
	lda     _currentEnemy
	sta     ptr1
	lda     _currentEnemy+1
	sta     ptr1+1
	dey
	lda     (ptr1),y
	clc
	adc     #$02
	sta     _enemyLeft
;
; enemyRight = (*currentEnemy).x + 14;
;
	lda     _currentEnemy
	sta     ptr1
	lda     _currentEnemy+1
	sta     ptr1+1
	lda     (ptr1),y
	clc
	adc     #$0E
	sta     _enemyRight
;
; if ( !( rightSide  <  enemyLeft  || 
;
	lda     _rightSide
	cmp     _enemyLeft
	bcc     L091B
;
; leftSide   >= enemyRight || 
;
	lda     _leftSide
	cmp     _enemyRight
	bcs     L091B
;
; bottomSide <  enemyTop   || 
;
	lda     _bottomSide
	cmp     _enemyTop
	bcc     L091B
;
; topSide    >= enemyBottom ) ) {
;
	lda     _topSide
	cmp     _enemyBottom
	bcs     L091B
	tya
	jmp     L0763
L091B:	lda     #$01
L0763:	jsr     bnega
	beq     L0760
;
; enemyColliding = 1;
;
	lda     #$01
	sta     _enemyColliding
;
; ++enemyIndex;
;
L0760:	inc     _enemyIndex
;
; while ( !enemyColliding && ( enemyIndex < numEnemies ) ) {
;
L0747:	lda     _enemyColliding
	bne     L091C
	tax
	lda     _enemyIndex
	cmp     _numEnemies
	jcc     L091A
L091C:	rts

.endproc

; ---------------------------------------------------------------
; void __near__ potionEnemyCollideCheck (void)
; ---------------------------------------------------------------

.segment	"CODE"

.proc	_potionEnemyCollideCheck: near

.segment	"CODE"

;
; enemyColliding = 0;
;
	lda     #$00
	sta     _enemyColliding
;
; if ( potionIsActive ) {
;
	lda     _potionIsActive
	beq     L091F
;
; four_SidesSmall(potionX, potionY);
;
	lda     _potionX
	jsr     pusha
	lda     _potionY
	jsr     _four_SidesSmall
;
; enemyCollideCheck();
;
	jsr     _enemyCollideCheck
;
; if ( enemyColliding ) {
;
	lda     _enemyColliding
	beq     L091F
;
; killPotion();
;
	jsr     _killPotion
;
; enemyColliding = 0;
;
	lda     #$00
L091F:	sta     _enemyColliding
;
; }
;
	rts

.endproc

; ---------------------------------------------------------------
; void __near__ updateEnemies (void)
; ---------------------------------------------------------------

.segment	"CODE"

.proc	_updateEnemies: near

.segment	"BSS"

L0777:
	.res	1,$00
L0778:
	.res	1,$00
L0779:
	.res	1,$00

.segment	"CODE"

;
; for ( i = 0; i < numEnemies; i++ ) {
;
	lda     #$00
	sta     L0777
	tax
L0921:	lda     L0777
	cmp     _numEnemies
	bcc     L0929
;
; }
;
	rts
;
; currentEnemy = &(enemyData[i]);
;
L0929:	jsr     mulax5
	clc
	adc     #<(_enemyData)
	sta     _currentEnemy
	txa
	adc     #>(_enemyData)
	sta     _currentEnemy+1
;
; vertCollide = collideCheckVertical((*currentEnemy).x, (*currentEnemy).y + 1, PAD_DOWN);
;
	jsr     decsp2
	lda     _currentEnemy
	sta     ptr1
	lda     _currentEnemy+1
	sta     ptr1+1
	ldy     #$00
	lda     (ptr1),y
	iny
	sta     (sp),y
	lda     _currentEnemy
	sta     ptr1
	lda     _currentEnemy+1
	sta     ptr1+1
	lda     (ptr1),y
	clc
	adc     #$01
	dey
	sta     (sp),y
	lda     #$20
	jsr     _collideCheckVertical
	sta     L0778
;
; if ( vertCollide != TILE_ALLCOLLIDE ) {
;
	cmp     #$01
	beq     L078E
;
; (*currentEnemy).y += 1;
;
	lda     _currentEnemy
	sta     ptr1
	lda     _currentEnemy+1
	sta     ptr1+1
	ldy     #$01
	lda     (ptr1),y
	clc
	adc     #$01
;
; } else {
;
	jmp     L0920
;
; if ( (*currentEnemy).direction == PAD_RIGHT ) {
;
L078E:	lda     _currentEnemy
	sta     ptr1
	lda     _currentEnemy+1
	sta     ptr1+1
	ldy     #$03
	lda     (ptr1),y
	cmp     #$80
	bne     L0794
;
; (*currentEnemy).x += 1;
;
	lda     _currentEnemy
	sta     ptr1
	lda     _currentEnemy+1
	sta     ptr1+1
	ldy     #$00
	lda     (ptr1),y
	clc
	adc     #$01
	sta     (ptr1),y
;
; collideCheckHorizontal((*currentEnemy).x, (*currentEnemy).y, PAD_RIGHT);
;
	jsr     decsp2
	lda     _currentEnemy
	sta     ptr1
	lda     _currentEnemy+1
	sta     ptr1+1
	lda     (ptr1),y
	iny
	sta     (sp),y
	lda     _currentEnemy
	sta     ptr1
	lda     _currentEnemy+1
	sta     ptr1+1
	lda     (ptr1),y
	dey
	sta     (sp),y
	lda     #$80
	jsr     _collideCheckHorizontal
;
; if ( ( horizontalCollideCheck == TILE_ALLCOLLIDE ) || ( horizontalCollideCheck == TILE_ENEMYCOLLIDE ) ) {
;
	ldx     #$00
	lda     _horizontalCollideCheck
	cmp     #$01
	beq     L0924
	cmp     #$02
	jne     L0928
;
; flipSprite(enemySpriteData[i], 0);
;
L0924:	lda     L0777
	jsr     pusha0
	lda     #$11
	jsr     tosmula0
	clc
	adc     #<(_enemySpriteData)
	tay
	txa
	adc     #>(_enemySpriteData)
	tax
	tya
	jsr     pushax
	lda     #$00
	jsr     _flipSprite
;
; (*currentEnemy).direction = PAD_LEFT;
;
	lda     _currentEnemy
	sta     ptr1
	lda     _currentEnemy+1
	sta     ptr1+1
	ldx     #$00
	lda     #$40
	ldy     #$03
	sta     (ptr1),y
;
; } else {
;
	jmp     L0928
;
; (*currentEnemy).x -= 1;
;
L0794:	lda     _currentEnemy
	sta     ptr1
	lda     _currentEnemy+1
	sta     ptr1+1
	ldy     #$00
	lda     (ptr1),y
	sec
	sbc     #$01
	sta     (ptr1),y
;
; collideCheckHorizontal((*currentEnemy).x, (*currentEnemy).y, PAD_LEFT);
;
	jsr     decsp2
	lda     _currentEnemy
	sta     ptr1
	lda     _currentEnemy+1
	sta     ptr1+1
	lda     (ptr1),y
	iny
	sta     (sp),y
	lda     _currentEnemy
	sta     ptr1
	lda     _currentEnemy+1
	sta     ptr1+1
	lda     (ptr1),y
	dey
	sta     (sp),y
	lda     #$40
	jsr     _collideCheckHorizontal
;
; if ( ( horizontalCollideCheck == TILE_ALLCOLLIDE ) || ( horizontalCollideCheck == TILE_ENEMYCOLLIDE ) ) {
;
	ldx     #$00
	lda     _horizontalCollideCheck
	cmp     #$01
	beq     L0927
	cmp     #$02
	bne     L0928
;
; flipSprite(enemySpriteData[i], 1);
;
L0927:	lda     L0777
	jsr     pusha0
	lda     #$11
	jsr     tosmula0
	clc
	adc     #<(_enemySpriteData)
	tay
	txa
	adc     #>(_enemySpriteData)
	tax
	tya
	jsr     pushax
	lda     #$01
	jsr     _flipSprite
;
; (*currentEnemy).direction = PAD_RIGHT;
;
	lda     _currentEnemy
	sta     ptr1
	lda     _currentEnemy+1
	sta     ptr1+1
	lda     #$80
	ldy     #$03
L0920:	sta     (ptr1),y
;
; for ( i = 0; i < numEnemies; i++ ) {
;
	ldx     #$00
L0928:	lda     L0777
	clc
	adc     #$01
	sta     L0777
	jmp     L0921

.endproc

; ---------------------------------------------------------------
; void __near__ updatePlayerVerticalMovement (void)
; ---------------------------------------------------------------

.segment	"CODE"

.proc	_updatePlayerVerticalMovement: near

.segment	"CODE"

;
; u8 collideBottom = 1;
;
	lda     #$01
	jsr     pusha
;
; if ( !( pad & PAD_A ) && playerJumping && ( playerVertVel > 0 ) ) {
;
	lda     _pad
	and     #$01
	bne     L07C4
	lda     _playerJumping
	beq     L07C4
	lda     _playerVertVel
	sec
	sbc     #$01
	bvs     L07CA
	eor     #$80
L07CA:	bpl     L07C4
;
; playerVertVel = 0;
;
	lda     #$00
	sta     _playerVertVel
;
; if ( playerJumping && ( playerVertVel > 0 ) ) {
;
L07C4:	lda     _playerJumping
	beq     L07CE
	lda     _playerVertVel
	sec
	sbc     #$01
	bvs     L07D3
	eor     #$80
L07D3:	bpl     L07CE
;
; playerY -= playerVertVel;
;
	lda     _playerVertVel
	eor     #$FF
	sec
	adc     _playerY
	sta     _playerY
;
; if ( collideCheckVertical(playerX, playerY, PAD_UP) == TILE_ALLCOLLIDE ) { 
;
	jsr     decsp2
	lda     _playerX
	ldy     #$01
	sta     (sp),y
	lda     _playerY
	dey
	sta     (sp),y
	lda     #$10
	jsr     _collideCheckVertical
	cmp     #$01
	bne     L0935
;
; playerY = (playerY & 0xF8) + 8;
;
	lda     _playerY
	and     #$F8
	clc
	adc     #$08
	sta     _playerY
;
; } else {
;
	jmp     L0935
;
; if ( collideCheckVertical(playerX, playerY + 2, PAD_DOWN) == TILE_ALLCOLLIDE ) { 
;
L07CE:	jsr     decsp2
	lda     _playerX
	ldy     #$01
	sta     (sp),y
	lda     _playerY
	clc
	adc     #$02
	dey
	sta     (sp),y
	lda     #$20
	jsr     _collideCheckVertical
	cmp     #$01
	bne     L07E2
;
; playerY = (playerY & 0xF8) + 7;
;
	lda     _playerY
	and     #$F8
	clc
	adc     #$07
	sta     _playerY
;
; playerJumping = 0;
;
	lda     #$00
	sta     _playerJumping
;
; collideBottom = 1;   
;
	lda     #$01
;
; } else {
;
	jmp     L093F
;
; playerY -= playerVertVel;
;
L07E2:	lda     _playerVertVel
	eor     #$FF
	sec
	adc     _playerY
	sta     _playerY
;
; collideBottom = 0;
;
	lda     #$00
L093F:	ldy     #$00
	sta     (sp),y
;
; if ( ( playerVertVel > -3 ) && ( playerJumpCounter == 4 ) ) {
;
L0935:	lda     _playerVertVel
	sec
	sbc     #$FE
	bvs     L07FA
	eor     #$80
L07FA:	bpl     L093A
	lda     _playerJumpCounter
	cmp     #$04
	bne     L093A
;
; playerVertVel -= 1; 
;
	dec     _playerVertVel
;
; playerJumpCounter = 0;
;
	lda     #$00
	sta     _playerJumpCounter
;
; if ( ( pad & PAD_A ) && ( !playerJumping ) && ( collideBottom ) ) {
;
L093A:	lda     _pad
	and     #$01
	beq     L093E
	lda     _playerJumping
	bne     L093E
	tay
	lda     (sp),y
	beq     L093E
;
; playerVertVel = PLAYER_INIT_JUMP_VEL;
;
	lda     #$04
	sta     _playerVertVel
;
; playerJumping = 1;
;
	lda     #$01
	sta     _playerJumping
;
; playerJumpCounter = 0;
;
	sty     _playerJumpCounter
;
; ++playerJumpCounter;
;
L093E:	inc     _playerJumpCounter
;
; }
;
	jmp     incsp1

.endproc

; ---------------------------------------------------------------
; void __near__ playerMoveHorizontal (void)
; ---------------------------------------------------------------

.segment	"CODE"

.proc	_playerMoveHorizontal: near

.segment	"CODE"

;
; if ( pad & PAD_LEFT ) {
;
	lda     _pad
	and     #$40
	beq     L0941
;
; playerDir = PAD_LEFT;
;
	lda     #$40
	sta     _playerDir
;
; if ( playerX > 0 ) {
;
	lda     _playerX
	beq     L081F
;
; playerX -= 1;
;
	dec     _playerX
;
; } else if ( pad & PAD_RIGHT ) {
;
	jmp     L081F
L0941:	lda     _pad
	and     #$80
	beq     L081F
;
; playerDir = PAD_RIGHT;
;
	lda     #$80
	sta     _playerDir
;
; if ( playerX < 240 ) {
;
	lda     _playerX
	cmp     #$F0
	bcs     L081F
;
; playerX += 1;
;
	inc     _playerX
;
; bgHorizCollideCheck(&playerX, &playerY, pad);
;
L081F:	jsr     decsp4
	lda     #<(_playerX)
	ldy     #$02
	sta     (sp),y
	iny
	lda     #>(_playerX)
	sta     (sp),y
	lda     #<(_playerY)
	ldy     #$00
	sta     (sp),y
	iny
	lda     #>(_playerY)
	sta     (sp),y
	lda     _pad
	jmp     _bgHorizCollideCheck

.endproc

; ---------------------------------------------------------------
; void __near__ updatePlayerAttack (void)
; ---------------------------------------------------------------

.segment	"CODE"

.proc	_updatePlayerAttack: near

.segment	"CODE"

;
; if ( pad & PAD_B ) {
;
	lda     _pad
	and     #$02
	beq     L082A
;
; if ( !potionIsActive ) {
;
	lda     _potionIsActive
	bne     L082A
;
; potionIsActive = 1;
;
	lda     #$01
	sta     _potionIsActive
;
; potionMoveCounter = 0;
;
	lda     #$00
	sta     _potionMoveCounter
;
; potionY = playerY + 6;
;
	lda     _playerY
	clc
	adc     #$06
	sta     _potionY
;
; if ( playerDir == PAD_RIGHT ) {
;
	lda     _playerDir
	cmp     #$80
	bne     L0943
;
; potionX = playerX + 12;
;
	lda     _playerX
	clc
	adc     #$0C
;
; } else {
;
	jmp     L0942
;
; potionX = playerX - 4;
;
L0943:	lda     _playerX
	sec
	sbc     #$04
L0942:	sta     _potionX
;
; potionDirection = playerDir;
;
	lda     _playerDir
	sta     _potionDirection
;
; potionVerticalVel = POTION_INIT_VERTICAL_VEL;
;
	lda     #$02
	sta     _potionVerticalVel
;
; }
;
L082A:	rts

.endproc

; ---------------------------------------------------------------
; void __near__ __fastcall__ updatePotionMovement (void)
; ---------------------------------------------------------------

.segment	"CODE"

.proc	_updatePotionMovement: near

.segment	"CODE"

;
; u8 potionCollided = 0;
;
	lda     #$00
	jsr     pusha
;
; if ( potionIsActive ) {
;
	lda     _potionIsActive
	bne     L0957
;
; }
;
	jmp     incsp1
;
; if ( potionDirection == PAD_LEFT ) {
;
L0957:	lda     _potionDirection
	cmp     #$40
	bne     L0946
;
; potionX -= POTION_HORIZ_VELOCITY;
;
	lda     _potionX
	sec
	sbc     #$02
;
; } else {
;
	jmp     L0944
;
; potionX += POTION_HORIZ_VELOCITY;
;
L0946:	lda     #$02
	clc
	adc     _potionX
L0944:	sta     _potionX
;
; if ( ( potionX <= 8 ) || ( potionX >= 248 ) ) {
;
	cmp     #$09
	bcc     L0947
	lda     _potionX
	cmp     #$F8
	bcc     L0948
;
; potionCollided = 1;
;
L0947:	lda     #$01
	ldy     #$00
	sta     (sp),y
;
; if ( potionVerticalVel > 0 ) {
;
L0948:	lda     _potionVerticalVel
	sec
	sbc     #$01
	bvs     L0855
	eor     #$80
L0855:	bpl     L0852
;
; if ( smallCollideCheckVertical(potionX, potionY + 8, PAD_UP) == TILE_ALLCOLLIDE ) { 
;
	jsr     decsp2
	lda     _potionX
	ldy     #$01
	sta     (sp),y
	lda     _potionY
	clc
	adc     #$08
	dey
	sta     (sp),y
	lda     #$10
	jsr     _smallCollideCheckVertical
	cmp     #$01
	bne     L0863
;
; potionCollided = 1;    
;
	ldy     #$00
	sta     (sp),y
;
; } else {
;
	jmp     L094D
;
; if ( smallCollideCheckVertical(potionX, potionY, PAD_DOWN) == TILE_ALLCOLLIDE ) { 
;
L0852:	jsr     decsp2
	lda     _potionX
	ldy     #$01
	sta     (sp),y
	lda     _potionY
	dey
	sta     (sp),y
	lda     #$20
	jsr     _smallCollideCheckVertical
	cmp     #$01
	bne     L0863
;
; potionCollided = 1;    
;
	ldy     #$00
	sta     (sp),y
;
; } else {
;
	jmp     L094D
;
; potionY -= potionVerticalVel;
;
L0863:	lda     _potionVerticalVel
	eor     #$FF
	sec
	adc     _potionY
	sta     _potionY
;
; if ( potionY >= 240 ) {
;
L094D:	lda     _potionY
	cmp     #$F0
	bcc     L094E
;
; potionCollided = 1;
;
	lda     #$01
	ldy     #$00
	sta     (sp),y
;
; if ( ( potionVerticalVel >= -3 ) && ( potionMoveCounter == 3 ) ) {
;
L094E:	lda     _potionVerticalVel
	sec
	sbc     #$FD
	bvs     L0876
	eor     #$80
L0876:	bpl     L0953
	lda     _potionMoveCounter
	cmp     #$03
	bne     L0953
;
; potionVerticalVel -= 1; 
;
	dec     _potionVerticalVel
;
; potionMoveCounter = 0;
;
	lda     #$00
	sta     _potionMoveCounter
;
; ++potionMoveCounter;
;
L0953:	inc     _potionMoveCounter
;
; if ( potionCollided ) {
;
	ldy     #$00
	lda     (sp),y
	beq     L0880
;
; potionIsActive = 0;
;
	sty     _potionIsActive
;
; potionX = -8;
;
	lda     #$F8
	sta     _potionX
;
; potionY = -8;
;
	sta     _potionY
;
; }
;
L0880:	jmp     incsp1

.endproc

; ---------------------------------------------------------------
; void __near__ __fastcall__ simpleUpdatePotionMovement (void)
; ---------------------------------------------------------------

.segment	"CODE"

.proc	_simpleUpdatePotionMovement: near

.segment	"CODE"

;
; u8 potionCollided = 0;
;
	lda     #$00
	jsr     pusha
;
; if ( potionIsActive ) {
;
	lda     _potionIsActive
	beq     L089B
;
; if ( potionDirection == PAD_LEFT ) {
;
	lda     _potionDirection
	cmp     #$40
	bne     L0959
;
; potionX -= POTION_HORIZ_VELOCITY;
;
	lda     _potionX
	sec
	sbc     #$02
;
; } else {
;
	jmp     L0958
;
; potionX += POTION_HORIZ_VELOCITY;
;
L0959:	lda     #$02
	clc
	adc     _potionX
L0958:	sta     _potionX
;
; if ( ( potionX <= 8 ) || ( potionX >= 248 ) ) {
;
	cmp     #$09
	bcc     L095A
	lda     _potionX
	cmp     #$F8
	bcc     L095B
;
; potionCollided = 1;
;
L095A:	lda     #$01
	ldy     #$00
	sta     (sp),y
;
; ++potionMoveCounter;
;
L095B:	inc     _potionMoveCounter
;
; if ( potionCollided ) {
;
	ldy     #$00
	lda     (sp),y
	beq     L089B
;
; killPotion();
;
	jsr     _killPotion
;
; }
;
L089B:	jmp     incsp1

.endproc

; ---------------------------------------------------------------
; void __near__ main (void)
; ---------------------------------------------------------------

.segment	"CODE"

.proc	_main: near

.segment	"CODE"

;
; memcpy(palSprites, paldat, 16);
;
	ldy     #$0F
L08AA:	lda     _paldat,y
	sta     _palSprites,y
	dey
	bpl     L08AA
;
; memcpy(palBG, paldat + 16, 4);
;
	ldy     #$03
L08AF:	lda     _paldat+16,y
	sta     _palBG,y
	dey
	bpl     L08AF
;
; pal_spr(palSprites);
;
	lda     #<(_palSprites)
	ldx     #>(_palSprites)
	jsr     _pal_spr
;
; pal_bg(palBG);
;
	lda     #<(_palBG)
	ldx     #>(_palBG)
	jsr     _pal_bg
;
; vram_adr(NAMETABLE_A); //unpack nametable into VRAM
;
	ldx     #$20
	lda     #$00
	jsr     _vram_adr
;
; vram_unrle(map1); 
;
	lda     #<(_map1)
	ldx     #>(_map1)
	jsr     _vram_unrle
;
; ppu_on_all(); //enable rendering
;
	jsr     _ppu_on_all
;
; playerX = 0;
;
	lda     #$00
	sta     _playerX
;
; playerY = 0;
;
	sta     _playerY
;
; playerDir = PAD_LEFT;
;
	lda     #$40
	sta     _playerDir
;
; touch = 0; // collision flag
;
	lda     #$00
	sta     _touch
;
; frameCount = 0; // frame counter
;
	sta     _frameCount
;
; playerFrame = 0;
;
	sta     _playerFrame
;
; setSpriteFrame(playerSpriteData, playerFrames[playerFrame]);
;
	lda     #<(_playerSpriteData)
	ldx     #>(_playerSpriteData)
	jsr     pushax
	ldx     #$00
	lda     _playerFrame
	jsr     aslax2
	clc
	adc     #<(_playerFrames)
	tay
	txa
	adc     #>(_playerFrames)
	tax
	tya
	jsr     _setSpriteFrame
;
; setupMap();
;
	jsr     _setupMap
;
; ppu_wait_frame(); // wait for next TV frame
;
L08CA:	jsr     _ppu_wait_frame
;
; oamSpriteIndex = 0;
;
	lda     #$00
	sta     _oamSpriteIndex
;
; i = 0;
;
	sta     _i
;
; sprPriorityToggle = frameCount & 0xFE;
;
	lda     _frameCount
	and     #$FE
	sta     _sprPriorityToggle
;
; pad = pad_poll(i);
;
	lda     _i
	jsr     _pad_poll
	sta     _pad
;
; updatePlayerSprite();
;
	jsr     _updatePlayerSprite
;
; updateEnemySprites();
;
	jsr     _updateEnemySprites
;
; updatePotionSprite();
;
	jsr     _updatePotionSprite
;
; spriteCount();
;
	jsr     _spriteCount
;
; updateEnemies();
;
	jsr     _updateEnemies
;
; playerMoveHorizontal();
;
	jsr     _playerMoveHorizontal
;
; updatePlayerVerticalMovement();
;
	jsr     _updatePlayerVerticalMovement
;
; updatePlayerAttack();
;
	jsr     _updatePlayerAttack
;
; updatePotionMovement();
;
	jsr     _updatePotionMovement
;
; enemyColliding = 0;
;
	lda     #$00
	sta     _enemyColliding
;
; four_Sides(playerX, playerY);
;
	lda     _playerX
	jsr     pusha
	lda     _playerY
	jsr     _four_Sides
;
; enemyCollideCheck();
;
	jsr     _enemyCollideCheck
;
; playerEnemyColliding = enemyColliding;
;
	lda     _enemyColliding
	sta     _playerEnemyColliding
;
; potionEnemyCollideCheck();
;
	jsr     _potionEnemyCollideCheck
;
; if ( playerEnemyColliding ) {
;
	lda     _playerEnemyColliding
	beq     L08EA
;
; setSpritePalette(playerSpriteData, 0x0);
;
	lda     #<(_playerSpriteData)
	ldx     #>(_playerSpriteData)
	jsr     pushax
	lda     #$00
;
; } else {
;
	jmp     L095C
;
; setSpritePalette(playerSpriteData, 0x3);
;
L08EA:	lda     #<(_playerSpriteData)
	ldx     #>(_playerSpriteData)
	jsr     pushax
	lda     #$03
L095C:	jsr     _setSpritePalette
;
; ++frameCount;
;
	inc     _frameCount
;
; while ( 1 )
;
	jmp     L08CA

.endproc

