;
; File generated by cc65 v 2.16 - Git N/A
;
	.fopt		compiler,"cc65 v 2.16 - Git N/A"
	.setcpu		"6502"
	.smart		on
	.autoimport	on
	.case		on
	.debuginfo	off
	.importzp	sp, sreg, regsave, regbank
	.importzp	tmp1, tmp2, tmp3, tmp4, ptr1, ptr2, ptr3, ptr4
	.macpack	longbranch
	.forceimport	__STARTUP__
	.import		_pal_bg
	.import		_pal_spr
	.import		_ppu_wait_frame
	.import		_ppu_on_all
	.import		_oam_meta_spr
	.import		_pad_poll
	.import		_vram_adr
	.import		_vram_unrle
	.export		_test_nam
	.export		_test_nam_coll_rle
	.import		_memcpy
	.export		_oam_off
	.export		_testColl
	.export		_X1_Right_Side
	.export		_X1_Left_Side
	.export		_Y1_Bottom
	.export		_Y1_Top
	.export		_corner
	.export		_playerFlip
	.import		_paldat
	.export		_playerFrames
	.export		_playerSpriteData
	.export		_palSprites
	.export		_palBG
	.export		_setFrame
	.export		_flipSprite
	.export		_unrleCollision
	.export		_four_Sides
	.export		_getCollisionIndex
	.export		_collide_Check_LR
	.export		_collide_Check_UD
	.export		_main

.segment	"DATA"

.segment	"ZEROPAGE"
.segment	"DATA"
_playerFrames:
	.byte	$04
	.byte	$05
	.byte	$14
	.byte	$15
	.byte	$24
	.byte	$25
	.byte	$34
	.byte	$35
_playerSpriteData:
	.byte	$00
	.byte	$00
	.byte	$04
	.byte	$00
	.byte	$08
	.byte	$00
	.byte	$05
	.byte	$00
	.byte	$00
	.byte	$08
	.byte	$14
	.byte	$00
	.byte	$08
	.byte	$08
	.byte	$15
	.byte	$00
	.byte	$80

.segment	"RODATA"

_test_nam:
	.byte	$01
	.byte	$40
	.byte	$01
	.byte	$40
	.byte	$00
	.byte	$01
	.byte	$0A
	.byte	$41
	.byte	$01
	.byte	$02
	.byte	$00
	.byte	$01
	.byte	$0F
	.byte	$40
	.byte	$40
	.byte	$00
	.byte	$01
	.byte	$0D
	.byte	$41
	.byte	$00
	.byte	$01
	.byte	$0E
	.byte	$40
	.byte	$40
	.byte	$00
	.byte	$01
	.byte	$0E
	.byte	$41
	.byte	$00
	.byte	$01
	.byte	$0D
	.byte	$40
	.byte	$40
	.byte	$00
	.byte	$01
	.byte	$1D
	.byte	$40
	.byte	$40
	.byte	$00
	.byte	$01
	.byte	$10
	.byte	$41
	.byte	$00
	.byte	$01
	.byte	$0B
	.byte	$40
	.byte	$40
	.byte	$00
	.byte	$01
	.byte	$1D
	.byte	$40
	.byte	$40
	.byte	$00
	.byte	$01
	.byte	$12
	.byte	$41
	.byte	$00
	.byte	$01
	.byte	$09
	.byte	$40
	.byte	$40
	.byte	$00
	.byte	$01
	.byte	$1D
	.byte	$40
	.byte	$40
	.byte	$50
	.byte	$00
	.byte	$01
	.byte	$13
	.byte	$41
	.byte	$00
	.byte	$01
	.byte	$07
	.byte	$40
	.byte	$40
	.byte	$50
	.byte	$00
	.byte	$01
	.byte	$1C
	.byte	$40
	.byte	$40
	.byte	$50
	.byte	$00
	.byte	$01
	.byte	$1C
	.byte	$40
	.byte	$40
	.byte	$50
	.byte	$00
	.byte	$01
	.byte	$1C
	.byte	$40
	.byte	$40
	.byte	$50
	.byte	$00
	.byte	$01
	.byte	$1C
	.byte	$40
	.byte	$40
	.byte	$00
	.byte	$01
	.byte	$1D
	.byte	$40
	.byte	$40
	.byte	$00
	.byte	$01
	.byte	$1D
	.byte	$40
	.byte	$40
	.byte	$00
	.byte	$01
	.byte	$1D
	.byte	$40
	.byte	$40
	.byte	$00
	.byte	$01
	.byte	$19
	.byte	$41
	.byte	$41
	.byte	$00
	.byte	$00
	.byte	$40
	.byte	$40
	.byte	$00
	.byte	$01
	.byte	$1A
	.byte	$41
	.byte	$01
	.byte	$02
	.byte	$40
	.byte	$40
	.byte	$00
	.byte	$01
	.byte	$1D
	.byte	$40
	.byte	$40
	.byte	$00
	.byte	$01
	.byte	$1D
	.byte	$40
	.byte	$40
	.byte	$00
	.byte	$01
	.byte	$1D
	.byte	$40
	.byte	$40
	.byte	$00
	.byte	$01
	.byte	$1D
	.byte	$40
	.byte	$40
	.byte	$00
	.byte	$01
	.byte	$1D
	.byte	$40
	.byte	$40
	.byte	$00
	.byte	$01
	.byte	$02
	.byte	$40
	.byte	$01
	.byte	$04
	.byte	$00
	.byte	$01
	.byte	$03
	.byte	$40
	.byte	$01
	.byte	$05
	.byte	$00
	.byte	$01
	.byte	$03
	.byte	$40
	.byte	$01
	.byte	$04
	.byte	$00
	.byte	$01
	.byte	$02
	.byte	$40
	.byte	$40
	.byte	$00
	.byte	$00
	.byte	$41
	.byte	$01
	.byte	$05
	.byte	$00
	.byte	$01
	.byte	$03
	.byte	$41
	.byte	$01
	.byte	$05
	.byte	$00
	.byte	$01
	.byte	$03
	.byte	$41
	.byte	$01
	.byte	$06
	.byte	$00
	.byte	$40
	.byte	$40
	.byte	$00
	.byte	$01
	.byte	$04
	.byte	$41
	.byte	$41
	.byte	$00
	.byte	$01
	.byte	$16
	.byte	$40
	.byte	$01
	.byte	$40
	.byte	$00
	.byte	$01
	.byte	$3E
	.byte	$00
	.byte	$01
	.byte	$00
_test_nam_coll_rle:
	.byte	$01
	.byte	$41
	.byte	$00
	.byte	$1E
	.byte	$01
	.byte	$02
	.byte	$00
	.byte	$1E
	.byte	$01
	.byte	$02
	.byte	$00
	.byte	$1E
	.byte	$01
	.byte	$02
	.byte	$00
	.byte	$1E
	.byte	$01
	.byte	$02
	.byte	$00
	.byte	$1E
	.byte	$01
	.byte	$02
	.byte	$00
	.byte	$1E
	.byte	$01
	.byte	$02
	.byte	$00
	.byte	$1E
	.byte	$01
	.byte	$02
	.byte	$00
	.byte	$1E
	.byte	$01
	.byte	$02
	.byte	$00
	.byte	$1E
	.byte	$01
	.byte	$02
	.byte	$00
	.byte	$1E
	.byte	$01
	.byte	$02
	.byte	$00
	.byte	$1E
	.byte	$01
	.byte	$02
	.byte	$00
	.byte	$1E
	.byte	$01
	.byte	$02
	.byte	$00
	.byte	$1E
	.byte	$01
	.byte	$02
	.byte	$00
	.byte	$1E
	.byte	$01
	.byte	$02
	.byte	$00
	.byte	$1E
	.byte	$01
	.byte	$02
	.byte	$00
	.byte	$1E
	.byte	$01
	.byte	$02
	.byte	$00
	.byte	$1E
	.byte	$01
	.byte	$02
	.byte	$00
	.byte	$1E
	.byte	$01
	.byte	$02
	.byte	$00
	.byte	$1E
	.byte	$01
	.byte	$02
	.byte	$00
	.byte	$1E
	.byte	$01
	.byte	$02
	.byte	$00
	.byte	$1E
	.byte	$01
	.byte	$02
	.byte	$00
	.byte	$1E
	.byte	$01
	.byte	$02
	.byte	$00
	.byte	$1E
	.byte	$01
	.byte	$02
	.byte	$00
	.byte	$03
	.byte	$01
	.byte	$05
	.byte	$00
	.byte	$04
	.byte	$01
	.byte	$06
	.byte	$00
	.byte	$04
	.byte	$01
	.byte	$05
	.byte	$00
	.byte	$03
	.byte	$01
	.byte	$02
	.byte	$00
	.byte	$1E
	.byte	$01
	.byte	$02
	.byte	$00
	.byte	$1E
	.byte	$01
	.byte	$41

.segment	"BSS"

.segment	"ZEROPAGE"
.segment	"BSS"
.segment	"ZEROPAGE"
_oam_off:
	.res	1,$00
.segment	"BSS"
_player_x:
	.res	1,$00
.segment	"BSS"
_player_y:
	.res	1,$00
.segment	"BSS"
_i:
	.res	1,$00
.segment	"BSS"
_pad:
	.res	1,$00
.segment	"BSS"
_spr:
	.res	1,$00
.segment	"BSS"
_touch:
	.res	1,$00
.segment	"BSS"
_frame:
	.res	1,$00
.segment	"BSS"
_playerFrame:
	.res	1,$00
.segment	"BSS"
_testColl:
	.res	960,$00
.segment	"BSS"
_X1_Right_Side:
	.res	1,$00
.segment	"BSS"
_X1_Left_Side:
	.res	1,$00
.segment	"BSS"
_Y1_Bottom:
	.res	1,$00
.segment	"BSS"
_Y1_Top:
	.res	1,$00
.segment	"BSS"
_corner:
	.res	2,$00
.segment	"BSS"
_playerFlip:
	.res	1,$00
.segment	"BSS"
_palSprites:
	.res	4,$00
.segment	"BSS"
_palBG:
	.res	4,$00

; ---------------------------------------------------------------
; void __near__ __fastcall__ setFrame (__near__ unsigned char *, __near__ unsigned char *)
; ---------------------------------------------------------------

.segment	"CODE"

.proc	_setFrame: near

.segment	"CODE"

;
; void __fastcall__ setFrame(u8 *sprite, u8 *frame) {
;
	jsr     pushax
;
; sprite[2] = frame[0];
;
	ldy     #$05
	jsr     pushwysp
	ldy     #$03
	lda     (sp),y
	sta     ptr1+1
	dey
	lda     (sp),y
	sta     ptr1
	ldy     #$00
	lda     (ptr1),y
	ldy     #$02
	jsr     staspidx
;
; sprite[6] = frame[1];
;
	ldy     #$05
	jsr     pushwysp
	ldy     #$03
	lda     (sp),y
	sta     ptr1+1
	dey
	lda     (sp),y
	sta     ptr1
	dey
	lda     (ptr1),y
	ldy     #$06
	jsr     staspidx
;
; sprite[10] = frame[2];
;
	ldy     #$05
	jsr     pushwysp
	ldy     #$03
	lda     (sp),y
	sta     ptr1+1
	dey
	lda     (sp),y
	sta     ptr1
	lda     (ptr1),y
	ldy     #$0A
	jsr     staspidx
;
; sprite[14] = frame[3];
;
	ldy     #$05
	jsr     pushwysp
	ldy     #$03
	lda     (sp),y
	sta     ptr1+1
	dey
	lda     (sp),y
	sta     ptr1
	iny
	lda     (ptr1),y
	ldy     #$0E
	jsr     staspidx
;
; }
;
	jmp     incsp4

.endproc

; ---------------------------------------------------------------
; void __near__ __fastcall__ flipSprite (__near__ unsigned char *, unsigned char)
; ---------------------------------------------------------------

.segment	"CODE"

.proc	_flipSprite: near

.segment	"CODE"

;
; void __fastcall__ flipSprite(u8 *sprite, u8 flip) {
;
	jsr     pusha
;
; if ( flip ) {
;
	ldy     #$00
	lda     (sp),y
	jeq     L0187
;
; sprite[0] = 8;
;
	ldy     #$02
	lda     (sp),y
	sta     ptr1+1
	dey
	lda     (sp),y
	sta     ptr1
	lda     #$08
	dey
	sta     (ptr1),y
;
; sprite[3] |= OAM_FLIP_H;
;
	ldy     #$02
	lda     (sp),y
	sta     ptr1+1
	dey
	lda     (sp),y
	sta     ptr1
	ldy     #$03
	lda     (ptr1),y
	ora     #$40
	sta     (ptr1),y
;
; sprite[4] = 0;
;
	dey
	lda     (sp),y
	sta     ptr1+1
	dey
	lda     (sp),y
	sta     ptr1
	lda     #$00
	ldy     #$04
	sta     (ptr1),y
;
; sprite[7] |= OAM_FLIP_H;
;
	ldy     #$02
	lda     (sp),y
	sta     ptr1+1
	dey
	lda     (sp),y
	sta     ptr1
	ldy     #$07
	lda     (ptr1),y
	ora     #$40
	sta     (ptr1),y
;
; sprite[8] = 8;
;
	ldy     #$02
	lda     (sp),y
	sta     ptr1+1
	dey
	lda     (sp),y
	sta     ptr1
	lda     #$08
	tay
	sta     (ptr1),y
;
; sprite[11] |= OAM_FLIP_H;
;
	ldy     #$02
	lda     (sp),y
	sta     ptr1+1
	dey
	lda     (sp),y
	sta     ptr1
	ldy     #$0B
	lda     (ptr1),y
	ora     #$40
	sta     (ptr1),y
;
; sprite[12] = 0;
;
	ldy     #$02
	lda     (sp),y
	sta     ptr1+1
	dey
	lda     (sp),y
	sta     ptr1
	lda     #$00
	ldy     #$0C
	sta     (ptr1),y
;
; sprite[15] |= OAM_FLIP_H;
;
	ldy     #$02
	lda     (sp),y
	sta     ptr1+1
	dey
	lda     (sp),y
	sta     ptr1
	ldy     #$0F
	lda     (ptr1),y
	ora     #$40
;
; } else {
;
	jmp     L02D0
;
; sprite[0] = 0;
;
L0187:	ldy     #$02
	lda     (sp),y
	sta     ptr1+1
	dey
	lda     (sp),y
	sta     ptr1
	lda     #$00
	dey
	sta     (ptr1),y
;
; sprite[3] &= ~OAM_FLIP_H;
;
	ldy     #$02
	lda     (sp),y
	sta     ptr1+1
	dey
	lda     (sp),y
	sta     ptr1
	ldy     #$03
	lda     (ptr1),y
	and     #$BF
	sta     (ptr1),y
;
; sprite[4] = 8;
;
	dey
	lda     (sp),y
	sta     ptr1+1
	dey
	lda     (sp),y
	sta     ptr1
	lda     #$08
	ldy     #$04
	sta     (ptr1),y
;
; sprite[7] &= ~OAM_FLIP_H;
;
	ldy     #$02
	lda     (sp),y
	sta     ptr1+1
	dey
	lda     (sp),y
	sta     ptr1
	ldy     #$07
	lda     (ptr1),y
	and     #$BF
	sta     (ptr1),y
;
; sprite[8] = 0;
;
	ldy     #$02
	lda     (sp),y
	sta     ptr1+1
	dey
	lda     (sp),y
	sta     ptr1
	lda     #$00
	ldy     #$08
	sta     (ptr1),y
;
; sprite[11] &= ~OAM_FLIP_H;
;
	ldy     #$02
	lda     (sp),y
	sta     ptr1+1
	dey
	lda     (sp),y
	sta     ptr1
	ldy     #$0B
	lda     (ptr1),y
	and     #$BF
	sta     (ptr1),y
;
; sprite[12] = 8;
;
	ldy     #$02
	lda     (sp),y
	sta     ptr1+1
	dey
	lda     (sp),y
	sta     ptr1
	lda     #$08
	ldy     #$0C
	sta     (ptr1),y
;
; sprite[15] &= ~OAM_FLIP_H;  
;
	ldy     #$02
	lda     (sp),y
	sta     ptr1+1
	dey
	lda     (sp),y
	sta     ptr1
	ldy     #$0F
	lda     (ptr1),y
	and     #$BF
L02D0:	sta     (ptr1),y
;
; }
;
	jmp     incsp3

.endproc

; ---------------------------------------------------------------
; void __near__ unrleCollision (void)
; ---------------------------------------------------------------

.segment	"CODE"

.proc	_unrleCollision: near

.segment	"CODE"

;
; u8 i = 0;
;
	lda     #$00
	jsr     pusha
;
; u8 j = 0;
;
	jsr     pusha
;
; u16 size = sizeof(test_nam_coll_rle); 
;
	lda     #$76
	jsr     pusha0
;
; u16 outPointer = 0;
;
	jsr     decsp2
	jsr     push0
;
; while ( i <= size ) {
;
	jmp     L01C2
;
; currentByte = test_nam_coll_rle[i];
;
L01C0:	ldy     #$07
	lda     (sp),y
	tay
	lda     _test_nam_coll_rle,y
	ldy     #$03
	sta     (sp),y
;
; ++i;
;
	ldy     #$07
	clc
	lda     #$01
	adc     (sp),y
	sta     (sp),y
;
; byteCount = test_nam_coll_rle[i];
;
	tay
	lda     _test_nam_coll_rle,y
	ldy     #$02
	sta     (sp),y
;
; ++i;
;
	ldy     #$07
	clc
	lda     #$01
	adc     (sp),y
	sta     (sp),y
;
; for ( j = 0; j < byteCount; ++j ) {
;
	lda     #$00
	dey
L02D1:	sta     (sp),y
	ldx     #$00
	lda     (sp),y
	ldy     #$02
	cmp     (sp),y
	bcs     L01C2
;
; testColl[outPointer] = currentByte;
;
	lda     #<(_testColl)
	ldy     #$00
	clc
	adc     (sp),y
	sta     ptr1
	lda     #>(_testColl)
	iny
	adc     (sp),y
	sta     ptr1+1
	ldy     #$03
	lda     (sp),y
	ldy     #$00
	sta     (ptr1),y
;
; ++outPointer;
;
	lda     #$01
	jsr     addeq0sp
;
; for ( j = 0; j < byteCount; ++j ) {
;
	ldy     #$06
	clc
	lda     #$01
	adc     (sp),y
	jmp     L02D1
;
; while ( i <= size ) {
;
L01C2:	ldy     #$07
	lda     (sp),y
	sec
	ldy     #$04
	sbc     (sp),y
	sta     tmp1
	txa
	iny
	sbc     (sp),y
	ora     tmp1
	bcc     L01C0
	beq     L01C0
;
; }
;
	jmp     incsp8

.endproc

; ---------------------------------------------------------------
; void __near__ four_Sides (void)
; ---------------------------------------------------------------

.segment	"CODE"

.proc	_four_Sides: near

.segment	"CODE"

;
; if (player_x < (255 - 1)){ // find the left side
;
	lda     _player_x
	cmp     #$FE
	bcs     L02D5
;
; X1_Left_Side = player_x + 1;
;
	clc
	adc     #$01
;
; else {
;
	jmp     L02D2
;
; X1_Left_Side = 255;
;
L02D5:	lda     #$FF
L02D2:	sta     _X1_Left_Side
;
; if (player_x < (255 - 15)){ // find the right side
;
	lda     _player_x
	cmp     #$F0
	bcs     L02D6
;
; X1_Right_Side = player_x + 15;
;
	clc
	adc     #$0F
;
; else {
;
	jmp     L02D3
;
; X1_Right_Side = 255;
;
L02D6:	lda     #$FF
L02D3:	sta     _X1_Right_Side
;
; Y1_Top = player_y + 1; // our top is the same as the master Y
;
	lda     _player_y
	clc
	adc     #$01
	sta     _Y1_Top
;
; if (player_y < (255)){ // find the bottom side
;
	lda     _player_y
	cmp     #$FF
	bcs     L02D7
;
; Y1_Bottom = player_y + 16;
;
	clc
	adc     #$10
;
; else {
;
	jmp     L02D4
;
; Y1_Bottom = 255;
;
L02D7:	lda     #$FF
L02D4:	sta     _Y1_Bottom
;
; }
;
	rts

.endproc

; ---------------------------------------------------------------
; unsigned int __near__ __fastcall__ getCollisionIndex (unsigned char, unsigned char)
; ---------------------------------------------------------------

.segment	"CODE"

.proc	_getCollisionIndex: near

.segment	"CODE"

;
; u16 __fastcall__ getCollisionIndex(u8 screenX, u8 screenY) {
;
	jsr     pusha
;
; return ((u16) screenX >> 3) + (((u16) screenY >> 3) << 5);
;
	ldy     #$01
	lda     (sp),y
	ldx     #$00
	lsr     a
	lsr     a
	lsr     a
	sta     ptr1
	stx     ptr1+1
	lda     (sp,x)
	lsr     a
	lsr     a
	lsr     a
	jsr     shlax4
	stx     tmp1
	asl     a
	rol     tmp1
	clc
	adc     ptr1
	pha
	lda     tmp1
	adc     ptr1+1
	tax
	pla
;
; }
;
	jmp     incsp2

.endproc

; ---------------------------------------------------------------
; void __near__ collide_Check_LR (void)
; ---------------------------------------------------------------

.segment	"CODE"

.proc	_collide_Check_LR: near

.segment	"CODE"

;
; four_Sides(); // set the L R bottom top variables
;
	jsr     _four_Sides
;
; if ((pad & PAD_RIGHT) != 0){  // first check right
;
	lda     _pad
	and     #$80
	beq     L02D9
;
; corner = getCollisionIndex(X1_Right_Side, Y1_Top); // top right
;
	lda     _X1_Right_Side
	jsr     pusha
	lda     _Y1_Top
	jsr     _getCollisionIndex
	sta     _corner
	stx     _corner+1
;
; if (testColl[corner] != 0) {
;
	lda     #<(_testColl)
	sta     ptr1
	lda     #>(_testColl)
	clc
	adc     _corner+1
	sta     ptr1+1
	ldy     _corner
	lda     (ptr1),y
	beq     L0208
;
; player_x = (player_x & 0xf8); // if collision, realign
;
	lda     _player_x
	and     #$F8
;
; } else {
;
	jmp     L02D8
;
; corner = getCollisionIndex(X1_Right_Side, Y1_Bottom); // bottom right
;
L0208:	lda     _X1_Right_Side
	jsr     pusha
	lda     _Y1_Bottom
	jsr     _getCollisionIndex
	sta     _corner
	stx     _corner+1
;
; if (testColl[corner] != 0)
;
	lda     #<(_testColl)
	sta     ptr1
	lda     #>(_testColl)
	clc
	adc     _corner+1
	sta     ptr1+1
	ldy     _corner
	lda     (ptr1),y
	beq     L022E
;
; player_x = (player_x & 0xf8); // if collision, realign
;
	lda     _player_x
	and     #$F8
;
; else if ((pad & PAD_LEFT) != 0){ // check left
;
	jmp     L02D8
L02D9:	lda     _pad
	and     #$40
	beq     L022E
;
; corner = getCollisionIndex(X1_Left_Side, Y1_Top); // top left
;
	lda     _X1_Left_Side
	jsr     pusha
	lda     _Y1_Top
	jsr     _getCollisionIndex
	sta     _corner
	stx     _corner+1
;
; if (testColl[corner] != 0) {
;
	lda     #<(_testColl)
	sta     ptr1
	lda     #>(_testColl)
	clc
	adc     _corner+1
	sta     ptr1+1
	ldy     _corner
	lda     (ptr1),y
;
; } else {
;
	bne     L02DD
;
; corner = getCollisionIndex(X1_Left_Side, Y1_Bottom); // bottom left
;
	lda     _X1_Left_Side
	jsr     pusha
	lda     _Y1_Bottom
	jsr     _getCollisionIndex
	sta     _corner
	stx     _corner+1
;
; if (testColl[corner] != 0)
;
	lda     #<(_testColl)
	sta     ptr1
	lda     #>(_testColl)
	clc
	adc     _corner+1
	sta     ptr1+1
	ldy     _corner
	lda     (ptr1),y
	beq     L022E
;
; player_x = (player_x & 0xf8) + 8; // if collision, realign   
;
L02DD:	lda     _player_x
	and     #$F8
	clc
	adc     #$08
L02D8:	sta     _player_x
;
; }
;
L022E:	rts

.endproc

; ---------------------------------------------------------------
; void __near__ collide_Check_UD (void)
; ---------------------------------------------------------------

.segment	"CODE"

.proc	_collide_Check_UD: near

.segment	"CODE"

;
; four_Sides();
;
	jsr     _four_Sides
;
; if ((pad & PAD_DOWN) != 0){ // down first
;
	lda     _pad
	and     #$20
	beq     L02DF
;
; corner = getCollisionIndex(X1_Right_Side, Y1_Bottom); // bottom right
;
	lda     _X1_Right_Side
	jsr     pusha
	lda     _Y1_Bottom
	jsr     _getCollisionIndex
	sta     _corner
	stx     _corner+1
;
; if (testColl[corner] != 0) {
;
	lda     #<(_testColl)
	sta     ptr1
	lda     #>(_testColl)
	clc
	adc     _corner+1
	sta     ptr1+1
	ldy     _corner
	lda     (ptr1),y
	beq     L023F
;
; player_y = (player_y & 0xf8) - 1; // if collision, realign
;
	lda     _player_y
	and     #$F8
	sec
	sbc     #$01
;
; } else {
;
	jmp     L02DE
;
; corner = getCollisionIndex(X1_Left_Side, Y1_Bottom); // bottom left
;
L023F:	lda     _X1_Left_Side
	jsr     pusha
	lda     _Y1_Bottom
	jsr     _getCollisionIndex
	sta     _corner
	stx     _corner+1
;
; if (testColl[corner] != 0)
;
	lda     #<(_testColl)
	sta     ptr1
	lda     #>(_testColl)
	clc
	adc     _corner+1
	sta     ptr1+1
	ldy     _corner
	lda     (ptr1),y
	beq     L0266
;
; player_y = (player_y & 0xf8) - 1; // if collision, realign   
;
	lda     _player_y
	and     #$F8
	sec
	sbc     #$01
;
; else if ((pad & PAD_UP) != 0) { //or up
;
	jmp     L02DE
L02DF:	lda     _pad
	and     #$10
	beq     L0266
;
; corner = getCollisionIndex(X1_Right_Side, Y1_Top); // top right
;
	lda     _X1_Right_Side
	jsr     pusha
	lda     _Y1_Top
	jsr     _getCollisionIndex
	sta     _corner
	stx     _corner+1
;
; if (testColl[corner] != 0)
;
	lda     #<(_testColl)
	sta     ptr1
	lda     #>(_testColl)
	clc
	adc     _corner+1
	sta     ptr1+1
	ldy     _corner
	lda     (ptr1),y
	beq     L025B
;
; player_y = (player_y & 0xf8) + 7; // if collision, realign
;
	lda     _player_y
	and     #$F8
	clc
	adc     #$07
	sta     _player_y
;
; corner = getCollisionIndex(X1_Left_Side, Y1_Top);  // top left
;
L025B:	lda     _X1_Left_Side
	jsr     pusha
	lda     _Y1_Top
	jsr     _getCollisionIndex
	sta     _corner
	stx     _corner+1
;
; if (testColl[corner] != 0)
;
	lda     #<(_testColl)
	sta     ptr1
	lda     #>(_testColl)
	clc
	adc     _corner+1
	sta     ptr1+1
	ldy     _corner
	lda     (ptr1),y
	beq     L0266
;
; player_y = (player_y & 0xf8) + 7; // if collision, realign
;
	lda     _player_y
	and     #$F8
	clc
	adc     #$07
L02DE:	sta     _player_y
;
; }
;
L0266:	rts

.endproc

; ---------------------------------------------------------------
; void __near__ main (void)
; ---------------------------------------------------------------

.segment	"CODE"

.proc	_main: near

.segment	"CODE"

;
; memcpy(palSprites, paldat + 8, 4);
;
	ldy     #$03
L0272:	lda     _paldat+8,y
	sta     _palSprites,y
	dey
	bpl     L0272
;
; memcpy(palBG, paldat, 4);
;
	ldy     #$03
L0277:	lda     _paldat,y
	sta     _palBG,y
	dey
	bpl     L0277
;
; unrleCollision();
;
	jsr     _unrleCollision
;
; pal_spr(palSprites);
;
	lda     #<(_palSprites)
	ldx     #>(_palSprites)
	jsr     _pal_spr
;
; pal_bg(palBG);
;
	lda     #<(_palBG)
	ldx     #>(_palBG)
	jsr     _pal_bg
;
; vram_adr(NAMETABLE_A); //unpack nametable into VRAM
;
	ldx     #$20
	lda     #$00
	jsr     _vram_adr
;
; vram_unrle(test_nam); 
;
	lda     #<(_test_nam)
	ldx     #>(_test_nam)
	jsr     _vram_unrle
;
; ppu_on_all(); //enable rendering
;
	jsr     _ppu_on_all
;
; player_x = 52;
;
	lda     #$34
	sta     _player_x
;
; player_y = 100;
;
	lda     #$64
	sta     _player_y
;
; touch = 0; // collision flag
;
	lda     #$00
	sta     _touch
;
; frame = 0; // frame counter
;
	sta     _frame
;
; playerFlip = 0;
;
	sta     _playerFlip
;
; playerFrame = 0;
;
	sta     _playerFrame
;
; ppu_wait_frame(); // wait for next TV frame
;
L028E:	jsr     _ppu_wait_frame
;
; spr = 0;
;
	lda     #$00
	sta     _spr
;
; i = 0;
;
	sta     _i
;
; if ( ( frame & 0x0F ) == 0x0F ) {
;
	lda     _frame
	and     #$0F
	cmp     #$0F
	bne     L0297
;
; playerFrame ^= 1;
;
	lda     _playerFrame
	eor     #$01
	sta     _playerFrame
;
; setFrame(playerSpriteData, playerFrames[playerFrame]);
;
	lda     #<(_playerSpriteData)
	ldx     #>(_playerSpriteData)
	jsr     pushax
	ldx     #$00
	lda     _playerFrame
	jsr     aslax2
	clc
	adc     #<(_playerFrames)
	tay
	txa
	adc     #>(_playerFrames)
	tax
	tya
	jsr     _setFrame
;
; spr = oam_meta_spr(player_x, player_y, spr, playerSpriteData);
;
L0297:	jsr     decsp3
	lda     _player_x
	ldy     #$02
	sta     (sp),y
	lda     _player_y
	dey
	sta     (sp),y
	lda     _spr
	dey
	sta     (sp),y
	lda     #<(_playerSpriteData)
	ldx     #>(_playerSpriteData)
	jsr     _oam_meta_spr
	sta     _spr
;
; pad = pad_poll(i);
;
	lda     _i
	jsr     _pad_poll
	sta     _pad
;
; if ( pad & PAD_RIGHT ) {
;
	and     #$80
	beq     L02E1
;
; flipSprite(playerSpriteData, 1);
;
	lda     #<(_playerSpriteData)
	ldx     #>(_playerSpriteData)
	jsr     pushax
	lda     #$01
;
; } else if ( pad & PAD_LEFT ) {
;
	jmp     L02E0
L02E1:	lda     _pad
	and     #$40
	beq     L02E2
;
; flipSprite(playerSpriteData, 0);
;
	lda     #<(_playerSpriteData)
	ldx     #>(_playerSpriteData)
	jsr     pushax
	lda     #$00
L02E0:	jsr     _flipSprite
;
; if(pad&PAD_LEFT  && player_x >  0)  player_x -= 2;
;
L02E2:	lda     _pad
	and     #$40
	beq     L02E6
	lda     _player_x
	beq     L02E6
	sec
	sbc     #$02
	sta     _player_x
;
; if(pad&PAD_RIGHT && player_x < 240) player_x += 2;
;
L02E6:	lda     _pad
	and     #$80
	beq     L02BB
	lda     _player_x
	cmp     #$F0
	bcs     L02BB
	lda     #$02
	clc
	adc     _player_x
	sta     _player_x
;
; collide_Check_LR();
;
L02BB:	jsr     _collide_Check_LR
;
; if(pad&PAD_UP    && player_y > 0)   player_y -= 2;
;
	lda     _pad
	and     #$10
	beq     L02ED
	lda     _player_y
	beq     L02ED
	sec
	sbc     #$02
	sta     _player_y
;
; if(pad&PAD_DOWN  && player_y < 220) player_y += 2;
;
L02ED:	lda     _pad
	and     #$20
	beq     L02C8
	lda     _player_y
	cmp     #$DC
	bcs     L02C8
	lda     #$02
	clc
	adc     _player_y
	sta     _player_y
;
; collide_Check_UD();
;
L02C8:	jsr     _collide_Check_UD
;
; ++frame;
;
	inc     _frame
;
; while(1)
;
	jmp     L028E

.endproc

