;
; File generated by cc65 v 2.16 - Git N/A
;
	.fopt		compiler,"cc65 v 2.16 - Git N/A"
	.setcpu		"6502"
	.smart		on
	.autoimport	on
	.case		on
	.debuginfo	off
	.importzp	sp, sreg, regsave, regbank
	.importzp	tmp1, tmp2, tmp3, tmp4, ptr1, ptr2, ptr3, ptr4
	.macpack	longbranch
	.forceimport	__STARTUP__
	.import		_memcpy
	.import		_pal_bg
	.import		_pal_spr
	.import		_ppu_wait_frame
	.import		_ppu_off
	.import		_ppu_on_all
	.import		_oam_meta_spr
	.import		_oam_hide_rest
	.import		_sfx_play
	.import		_pad_poll
	.import		_set_vram_update
	.import		_vram_adr
	.import		_vram_put
	.import		_vram_unrle
	.import		_delay
	.export		_map2
	.export		_map2_coll
	.export		_oam_off
	.import		_paldat
	.export		_bgPalette
	.export		_playerFrames
	.export		_glueFrames
	.export		_glueSpriteDataTemplate
	.export		_platformSpriteDataTemplate
	.export		_platformIndex
	.export		_enemyData
	.export		_enemyFrames
	.export		_emptyFrame
	.export		_fruitFrame
	.export		_jewelFrame
	.export		_enemySpriteDataTemplate
	.export		_tileUpdateListInit
	.export		_tileUpdateList
	.export		_setupMap
	.export		_setSpriteFrame
	.export		_setSpritePalette
	.export		_updateMapTile
	.export		_putMapTile
	.export		_putStr
	.export		_setSpritePriority
	.export		_flipSprite
	.export		_spriteCount
	.export		_updateEnemySprites
	.export		_updateGlueSprites
	.export		_updatePlatformSprites
	.export		_updatePlayerSprite
	.export		_drawScoreboard
	.export		_updateScoreboard
	.export		_addScore
	.export		_four_Sides
	.export		_glueFourSides
	.export		_four_SidesSmall
	.export		_getCollisionIndex
	.export		_collideCheckVertical
	.export		_collideCheckHorizontal
	.export		_bgHorizCollideCheck
	.export		_checkPlayerLadderCollision
	.export		_killPlayer
	.export		_playerEnemyCollideCheck
	.export		_genericEnemyCollideCheck
	.export		_glueEnemyCollideCheck
	.export		_glueCollideCheck
	.export		_updateEnemyMovement
	.export		_checkPlayerGetItems
	.export		_updatePlayerJumpFall
	.export		_updatePlayerClimbing
	.export		_updatePlayerVerticalMovement
	.export		_updatePlayerHorizontalMovement
	.export		_updatePlayerGlue
	.export		_updatePlayerState
	.export		_updateGlues
	.export		_main

.segment	"DATA"

.segment	"ZEROPAGE"
_playerX:
	.byte	$00
_playerY:
	.byte	$00
_enemyIndex:
	.byte	$00
.segment	"DATA"
_spriteFlickerIndex:
	.byte	$00
_sprPriorityToggle:
	.byte	$00
_playerScore:
	.word	$0000
_playerFrame:
	.byte	$00
_playerJumpCounter:
	.byte	$00
_playerState:
	.byte	$00
_playerVertVel:
	.byte	$00
_jumpButtonReset:
	.byte	$01
_glueButtonReset:
	.byte	$01
_playerSittingOnEnemy:
	.byte	$00
_playerSpriteData:
	.byte	$00
	.byte	$00
	.byte	$08
	.byte	$03
	.byte	$08
	.byte	$00
	.byte	$09
	.byte	$03
	.byte	$00
	.byte	$08
	.byte	$18
	.byte	$03
	.byte	$08
	.byte	$08
	.byte	$19
	.byte	$03
	.byte	$80
_enemySpriteCount:
	.byte	$00
_enemyCollidedIndex:
	.byte	$00
_scoreUpdateListData:
	.byte	$60
	.byte	$63
	.byte	$04
	.byte	$00
	.byte	$00
	.byte	$00
	.byte	$00
	.byte	$FF
_scoreUpdateList:
	.byte	$00
	.byte	$00
	.byte	$00
	.byte	$00
	.byte	$00
	.byte	$00
	.byte	$00
	.byte	$00
_digitsArray:
	.byte	$00
	.byte	$00
	.byte	$00
	.byte	$00
_scoreChanged:
	.byte	$00

.segment	"RODATA"

_map2:
	.byte	$05
	.byte	$00
	.byte	$01
	.byte	$01
	.byte	$00
	.byte	$00
	.byte	$01
	.byte	$00
	.byte	$05
	.byte	$0B
	.byte	$01
	.byte	$00
	.byte	$05
	.byte	$08
	.byte	$01
	.byte	$00
	.byte	$00
	.byte	$01
	.byte	$10
	.byte	$11
	.byte	$11
	.byte	$00
	.byte	$10
	.byte	$11
	.byte	$00
	.byte	$05
	.byte	$05
	.byte	$10
	.byte	$05
	.byte	$03
	.byte	$00
	.byte	$10
	.byte	$11
	.byte	$00
	.byte	$05
	.byte	$03
	.byte	$11
	.byte	$10
	.byte	$11
	.byte	$11
	.byte	$10
	.byte	$11
	.byte	$00
	.byte	$00
	.byte	$01
	.byte	$00
	.byte	$10
	.byte	$00
	.byte	$01
	.byte	$00
	.byte	$01
	.byte	$00
	.byte	$01
	.byte	$00
	.byte	$01
	.byte	$00
	.byte	$05
	.byte	$04
	.byte	$01
	.byte	$00
	.byte	$05
	.byte	$04
	.byte	$01
	.byte	$00
	.byte	$05
	.byte	$02
	.byte	$01
	.byte	$00
	.byte	$01
	.byte	$00
	.byte	$01
	.byte	$10
	.byte	$11
	.byte	$00
	.byte	$00
	.byte	$10
	.byte	$11
	.byte	$10
	.byte	$11
	.byte	$10
	.byte	$11
	.byte	$10
	.byte	$11
	.byte	$00
	.byte	$05
	.byte	$02
	.byte	$10
	.byte	$10
	.byte	$11
	.byte	$00
	.byte	$00
	.byte	$10
	.byte	$11
	.byte	$10
	.byte	$11
	.byte	$01
	.byte	$01
	.byte	$10
	.byte	$11
	.byte	$10
	.byte	$11
	.byte	$10
	.byte	$11
	.byte	$10
	.byte	$11
	.byte	$00
	.byte	$01
	.byte	$00
	.byte	$05
	.byte	$02
	.byte	$01
	.byte	$00
	.byte	$05
	.byte	$02
	.byte	$01
	.byte	$00
	.byte	$05
	.byte	$02
	.byte	$01
	.byte	$00
	.byte	$05
	.byte	$02
	.byte	$01
	.byte	$00
	.byte	$01
	.byte	$00
	.byte	$01
	.byte	$00
	.byte	$00
	.byte	$10
	.byte	$10
	.byte	$00
	.byte	$01
	.byte	$00
	.byte	$01
	.byte	$00
	.byte	$01
	.byte	$00
	.byte	$01
	.byte	$00
	.byte	$00
	.byte	$10
	.byte	$11
	.byte	$00
	.byte	$01
	.byte	$10
	.byte	$00
	.byte	$05
	.byte	$04
	.byte	$11
	.byte	$00
	.byte	$00
	.byte	$11
	.byte	$10
	.byte	$11
	.byte	$10
	.byte	$11
	.byte	$10
	.byte	$00
	.byte	$01
	.byte	$10
	.byte	$10
	.byte	$11
	.byte	$10
	.byte	$11
	.byte	$10
	.byte	$11
	.byte	$00
	.byte	$00
	.byte	$01
	.byte	$01
	.byte	$20
	.byte	$21
	.byte	$00
	.byte	$01
	.byte	$00
	.byte	$01
	.byte	$00
	.byte	$01
	.byte	$10
	.byte	$10
	.byte	$11
	.byte	$01
	.byte	$00
	.byte	$01
	.byte	$00
	.byte	$05
	.byte	$02
	.byte	$01
	.byte	$20
	.byte	$21
	.byte	$00
	.byte	$01
	.byte	$00
	.byte	$01
	.byte	$2F
	.byte	$00
	.byte	$01
	.byte	$10
	.byte	$10
	.byte	$00
	.byte	$01
	.byte	$11
	.byte	$30
	.byte	$31
	.byte	$10
	.byte	$11
	.byte	$10
	.byte	$11
	.byte	$10
	.byte	$11
	.byte	$1C
	.byte	$0C
	.byte	$11
	.byte	$00
	.byte	$10
	.byte	$11
	.byte	$10
	.byte	$11
	.byte	$10
	.byte	$11
	.byte	$30
	.byte	$31
	.byte	$10
	.byte	$11
	.byte	$10
	.byte	$11
	.byte	$3F
	.byte	$10
	.byte	$11
	.byte	$4B
	.byte	$00
	.byte	$01
	.byte	$02
	.byte	$03
	.byte	$02
	.byte	$03
	.byte	$02
	.byte	$03
	.byte	$00
	.byte	$01
	.byte	$00
	.byte	$01
	.byte	$02
	.byte	$03
	.byte	$02
	.byte	$03
	.byte	$22
	.byte	$23
	.byte	$02
	.byte	$03
	.byte	$02
	.byte	$03
	.byte	$02
	.byte	$03
	.byte	$02
	.byte	$05
	.byte	$02
	.byte	$03
	.byte	$22
	.byte	$23
	.byte	$10
	.byte	$5B
	.byte	$10
	.byte	$11
	.byte	$12
	.byte	$13
	.byte	$12
	.byte	$13
	.byte	$12
	.byte	$13
	.byte	$10
	.byte	$11
	.byte	$10
	.byte	$11
	.byte	$12
	.byte	$13
	.byte	$12
	.byte	$13
	.byte	$32
	.byte	$33
	.byte	$12
	.byte	$13
	.byte	$12
	.byte	$13
	.byte	$12
	.byte	$13
	.byte	$12
	.byte	$05
	.byte	$02
	.byte	$13
	.byte	$32
	.byte	$33
	.byte	$10
	.byte	$10
	.byte	$00
	.byte	$01
	.byte	$00
	.byte	$05
	.byte	$04
	.byte	$01
	.byte	$00
	.byte	$01
	.byte	$4A
	.byte	$4A
	.byte	$4B
	.byte	$0C
	.byte	$0D
	.byte	$0E
	.byte	$22
	.byte	$23
	.byte	$00
	.byte	$01
	.byte	$02
	.byte	$03
	.byte	$69
	.byte	$6A
	.byte	$6B
	.byte	$00
	.byte	$05
	.byte	$02
	.byte	$22
	.byte	$23
	.byte	$7A
	.byte	$10
	.byte	$10
	.byte	$11
	.byte	$10
	.byte	$05
	.byte	$04
	.byte	$11
	.byte	$10
	.byte	$11
	.byte	$5A
	.byte	$4A
	.byte	$4B
	.byte	$1C
	.byte	$1D
	.byte	$1E
	.byte	$32
	.byte	$33
	.byte	$10
	.byte	$11
	.byte	$12
	.byte	$13
	.byte	$79
	.byte	$7A
	.byte	$00
	.byte	$7C
	.byte	$10
	.byte	$10
	.byte	$32
	.byte	$33
	.byte	$8A
	.byte	$8B
	.byte	$00
	.byte	$01
	.byte	$00
	.byte	$01
	.byte	$00
	.byte	$01
	.byte	$20
	.byte	$21
	.byte	$68
	.byte	$68
	.byte	$69
	.byte	$4A
	.byte	$4B
	.byte	$2C
	.byte	$2D
	.byte	$2E
	.byte	$22
	.byte	$23
	.byte	$00
	.byte	$01
	.byte	$02
	.byte	$03
	.byte	$89
	.byte	$8A
	.byte	$00
	.byte	$8C
	.byte	$8D
	.byte	$8E
	.byte	$22
	.byte	$23
	.byte	$00
	.byte	$9B
	.byte	$10
	.byte	$11
	.byte	$10
	.byte	$11
	.byte	$10
	.byte	$11
	.byte	$30
	.byte	$31
	.byte	$78
	.byte	$68
	.byte	$69
	.byte	$4A
	.byte	$4B
	.byte	$3C
	.byte	$3D
	.byte	$3E
	.byte	$32
	.byte	$33
	.byte	$10
	.byte	$11
	.byte	$12
	.byte	$13
	.byte	$99
	.byte	$9A
	.byte	$00
	.byte	$9C
	.byte	$9D
	.byte	$9E
	.byte	$32
	.byte	$33
	.byte	$AA
	.byte	$00
	.byte	$00
	.byte	$01
	.byte	$02
	.byte	$03
	.byte	$22
	.byte	$23
	.byte	$02
	.byte	$03
	.byte	$02
	.byte	$03
	.byte	$00
	.byte	$01
	.byte	$00
	.byte	$01
	.byte	$02
	.byte	$03
	.byte	$02
	.byte	$03
	.byte	$02
	.byte	$03
	.byte	$02
	.byte	$03
	.byte	$00
	.byte	$01
	.byte	$00
	.byte	$01
	.byte	$22
	.byte	$23
	.byte	$02
	.byte	$03
	.byte	$BA
	.byte	$BB
	.byte	$10
	.byte	$11
	.byte	$12
	.byte	$13
	.byte	$32
	.byte	$33
	.byte	$12
	.byte	$13
	.byte	$12
	.byte	$13
	.byte	$10
	.byte	$11
	.byte	$10
	.byte	$11
	.byte	$12
	.byte	$13
	.byte	$12
	.byte	$13
	.byte	$12
	.byte	$13
	.byte	$12
	.byte	$13
	.byte	$10
	.byte	$11
	.byte	$10
	.byte	$11
	.byte	$32
	.byte	$33
	.byte	$12
	.byte	$13
	.byte	$CA
	.byte	$CB
	.byte	$00
	.byte	$01
	.byte	$00
	.byte	$01
	.byte	$32
	.byte	$33
	.byte	$00
	.byte	$01
	.byte	$00
	.byte	$05
	.byte	$04
	.byte	$01
	.byte	$00
	.byte	$01
	.byte	$00
	.byte	$05
	.byte	$04
	.byte	$01
	.byte	$00
	.byte	$01
	.byte	$01
	.byte	$00
	.byte	$32
	.byte	$33
	.byte	$00
	.byte	$01
	.byte	$00
	.byte	$01
	.byte	$00
	.byte	$01
	.byte	$10
	.byte	$11
	.byte	$32
	.byte	$33
	.byte	$10
	.byte	$11
	.byte	$10
	.byte	$05
	.byte	$04
	.byte	$11
	.byte	$10
	.byte	$11
	.byte	$10
	.byte	$05
	.byte	$04
	.byte	$11
	.byte	$00
	.byte	$01
	.byte	$11
	.byte	$10
	.byte	$32
	.byte	$33
	.byte	$10
	.byte	$11
	.byte	$10
	.byte	$11
	.byte	$00
	.byte	$01
	.byte	$00
	.byte	$00
	.byte	$32
	.byte	$33
	.byte	$01
	.byte	$86
	.byte	$87
	.byte	$88
	.byte	$20
	.byte	$21
	.byte	$0C
	.byte	$0D
	.byte	$00
	.byte	$01
	.byte	$4F
	.byte	$CF
	.byte	$00
	.byte	$01
	.byte	$00
	.byte	$01
	.byte	$00
	.byte	$01
	.byte	$42
	.byte	$43
	.byte	$32
	.byte	$33
	.byte	$00
	.byte	$01
	.byte	$00
	.byte	$01
	.byte	$10
	.byte	$11
	.byte	$10
	.byte	$10
	.byte	$32
	.byte	$33
	.byte	$11
	.byte	$A6
	.byte	$A7
	.byte	$98
	.byte	$30
	.byte	$31
	.byte	$1C
	.byte	$1D
	.byte	$10
	.byte	$11
	.byte	$5F
	.byte	$DF
	.byte	$10
	.byte	$11
	.byte	$10
	.byte	$11
	.byte	$00
	.byte	$01
	.byte	$52
	.byte	$53
	.byte	$32
	.byte	$33
	.byte	$10
	.byte	$11
	.byte	$10
	.byte	$11
	.byte	$00
	.byte	$01
	.byte	$00
	.byte	$00
	.byte	$02
	.byte	$03
	.byte	$02
	.byte	$03
	.byte	$22
	.byte	$23
	.byte	$02
	.byte	$03
	.byte	$02
	.byte	$03
	.byte	$00
	.byte	$01
	.byte	$00
	.byte	$01
	.byte	$00
	.byte	$01
	.byte	$00
	.byte	$01
	.byte	$00
	.byte	$01
	.byte	$02
	.byte	$03
	.byte	$02
	.byte	$05
	.byte	$03
	.byte	$00
	.byte	$01
	.byte	$00
	.byte	$01
	.byte	$00
	.byte	$01
	.byte	$12
	.byte	$13
	.byte	$12
	.byte	$13
	.byte	$32
	.byte	$33
	.byte	$12
	.byte	$13
	.byte	$12
	.byte	$13
	.byte	$10
	.byte	$11
	.byte	$10
	.byte	$11
	.byte	$10
	.byte	$11
	.byte	$10
	.byte	$11
	.byte	$10
	.byte	$11
	.byte	$12
	.byte	$13
	.byte	$12
	.byte	$05
	.byte	$03
	.byte	$10
	.byte	$11
	.byte	$00
	.byte	$01
	.byte	$10
	.byte	$11
	.byte	$11
	.byte	$01
	.byte	$00
	.byte	$00
	.byte	$22
	.byte	$23
	.byte	$00
	.byte	$05
	.byte	$04
	.byte	$01
	.byte	$8F
	.byte	$00
	.byte	$00
	.byte	$01
	.byte	$00
	.byte	$01
	.byte	$00
	.byte	$01
	.byte	$FB
	.byte	$FC
	.byte	$00
	.byte	$01
	.byte	$FF
	.byte	$00
	.byte	$00
	.byte	$01
	.byte	$00
	.byte	$01
	.byte	$10
	.byte	$11
	.byte	$10
	.byte	$11
	.byte	$10
	.byte	$10
	.byte	$32
	.byte	$33
	.byte	$10
	.byte	$05
	.byte	$04
	.byte	$11
	.byte	$00
	.byte	$10
	.byte	$10
	.byte	$11
	.byte	$10
	.byte	$11
	.byte	$00
	.byte	$01
	.byte	$FC
	.byte	$FD
	.byte	$00
	.byte	$01
	.byte	$00
	.byte	$05
	.byte	$02
	.byte	$01
	.byte	$10
	.byte	$11
	.byte	$00
	.byte	$01
	.byte	$00
	.byte	$01
	.byte	$00
	.byte	$01
	.byte	$32
	.byte	$33
	.byte	$4A
	.byte	$4B
	.byte	$00
	.byte	$01
	.byte	$1E
	.byte	$00
	.byte	$01
	.byte	$11
	.byte	$00
	.byte	$01
	.byte	$00
	.byte	$01
	.byte	$00
	.byte	$01
	.byte	$00
	.byte	$01
	.byte	$00
	.byte	$01
	.byte	$00
	.byte	$05
	.byte	$04
	.byte	$01
	.byte	$10
	.byte	$11
	.byte	$10
	.byte	$11
	.byte	$10
	.byte	$11
	.byte	$32
	.byte	$33
	.byte	$4A
	.byte	$4B
	.byte	$10
	.byte	$11
	.byte	$2E
	.byte	$10
	.byte	$00
	.byte	$01
	.byte	$10
	.byte	$11
	.byte	$10
	.byte	$11
	.byte	$10
	.byte	$11
	.byte	$10
	.byte	$11
	.byte	$10
	.byte	$11
	.byte	$00
	.byte	$00
	.byte	$10
	.byte	$00
	.byte	$10
	.byte	$11
	.byte	$02
	.byte	$03
	.byte	$02
	.byte	$03
	.byte	$02
	.byte	$03
	.byte	$02
	.byte	$03
	.byte	$02
	.byte	$03
	.byte	$02
	.byte	$03
	.byte	$02
	.byte	$03
	.byte	$00
	.byte	$01
	.byte	$00
	.byte	$01
	.byte	$02
	.byte	$03
	.byte	$02
	.byte	$03
	.byte	$02
	.byte	$03
	.byte	$02
	.byte	$03
	.byte	$02
	.byte	$03
	.byte	$00
	.byte	$01
	.byte	$10
	.byte	$11
	.byte	$12
	.byte	$13
	.byte	$12
	.byte	$13
	.byte	$12
	.byte	$13
	.byte	$12
	.byte	$13
	.byte	$12
	.byte	$13
	.byte	$12
	.byte	$13
	.byte	$12
	.byte	$13
	.byte	$10
	.byte	$11
	.byte	$10
	.byte	$11
	.byte	$12
	.byte	$13
	.byte	$12
	.byte	$13
	.byte	$12
	.byte	$13
	.byte	$12
	.byte	$13
	.byte	$12
	.byte	$13
	.byte	$00
	.byte	$01
	.byte	$80
	.byte	$05
	.byte	$1F
	.byte	$90
	.byte	$05
	.byte	$1F
	.byte	$C0
	.byte	$F0
	.byte	$30
	.byte	$00
	.byte	$05
	.byte	$05
	.byte	$20
	.byte	$00
	.byte	$05
	.byte	$02
	.byte	$A0
	.byte	$00
	.byte	$05
	.byte	$03
	.byte	$04
	.byte	$00
	.byte	$05
	.byte	$05
	.byte	$08
	.byte	$00
	.byte	$05
	.byte	$02
	.byte	$40
	.byte	$10
	.byte	$00
	.byte	$05
	.byte	$02
	.byte	$80
	.byte	$00
	.byte	$05
	.byte	$02
	.byte	$10
	.byte	$00
	.byte	$05
	.byte	$06
	.byte	$80
	.byte	$00
	.byte	$05
	.byte	$03
	.byte	$02
	.byte	$00
	.byte	$00
	.byte	$08
	.byte	$00
	.byte	$05
	.byte	$07
	.byte	$00
	.byte	$05
	.byte	$00
_map2_coll:
	.byte	$00
	.byte	$00
	.byte	$00
	.byte	$00
	.byte	$00
	.byte	$00
	.byte	$00
	.byte	$00
	.byte	$00
	.byte	$00
	.byte	$00
	.byte	$00
	.byte	$00
	.byte	$00
	.byte	$00
	.byte	$00
	.byte	$00
	.byte	$00
	.byte	$00
	.byte	$00
	.byte	$00
	.byte	$00
	.byte	$00
	.byte	$00
	.byte	$00
	.byte	$00
	.byte	$00
	.byte	$00
	.byte	$00
	.byte	$00
	.byte	$00
	.byte	$00
	.byte	$00
	.byte	$00
	.byte	$00
	.byte	$00
	.byte	$00
	.byte	$00
	.byte	$00
	.byte	$00
	.byte	$00
	.byte	$00
	.byte	$00
	.byte	$00
	.byte	$00
	.byte	$00
	.byte	$00
	.byte	$00
	.byte	$02
	.byte	$00
	.byte	$08
	.byte	$04
	.byte	$02
	.byte	$00
	.byte	$02
	.byte	$00
	.byte	$00
	.byte	$04
	.byte	$00
	.byte	$08
	.byte	$00
	.byte	$00
	.byte	$00
	.byte	$02
	.byte	$00
	.byte	$01
	.byte	$01
	.byte	$01
	.byte	$00
	.byte	$00
	.byte	$01
	.byte	$01
	.byte	$07
	.byte	$01
	.byte	$01
	.byte	$01
	.byte	$01
	.byte	$01
	.byte	$07
	.byte	$00
	.byte	$00
	.byte	$00
	.byte	$00
	.byte	$00
	.byte	$00
	.byte	$00
	.byte	$00
	.byte	$00
	.byte	$06
	.byte	$00
	.byte	$01
	.byte	$00
	.byte	$00
	.byte	$00
	.byte	$06
	.byte	$00
	.byte	$02
	.byte	$04
	.byte	$00
	.byte	$08
	.byte	$00
	.byte	$02
	.byte	$00
	.byte	$00
	.byte	$06
	.byte	$00
	.byte	$01
	.byte	$00
	.byte	$00
	.byte	$00
	.byte	$06
	.byte	$00
	.byte	$00
	.byte	$01
	.byte	$07
	.byte	$01
	.byte	$01
	.byte	$00
	.byte	$00
	.byte	$01
	.byte	$01
	.byte	$01
	.byte	$01
	.byte	$00
	.byte	$00
	.byte	$07
	.byte	$01
	.byte	$00
	.byte	$00
	.byte	$00
	.byte	$06
	.byte	$00
	.byte	$00
	.byte	$00
	.byte	$00
	.byte	$00
	.byte	$00
	.byte	$00
	.byte	$00
	.byte	$00
	.byte	$00
	.byte	$06
	.byte	$00
	.byte	$00
	.byte	$00
	.byte	$02
	.byte	$06
	.byte	$04
	.byte	$00
	.byte	$08
	.byte	$00
	.byte	$02
	.byte	$00
	.byte	$00
	.byte	$00
	.byte	$02
	.byte	$0C
	.byte	$06
	.byte	$0A
	.byte	$02
	.byte	$00
	.byte	$00
	.byte	$01
	.byte	$01
	.byte	$07
	.byte	$01
	.byte	$01
	.byte	$00
	.byte	$00
	.byte	$0D
	.byte	$00
	.byte	$00
	.byte	$01
	.byte	$01
	.byte	$01
	.byte	$00
	.byte	$00
	.byte	$00
	.byte	$00
	.byte	$00
	.byte	$06
	.byte	$00
	.byte	$00
	.byte	$00
	.byte	$00
	.byte	$00
	.byte	$00
	.byte	$00
	.byte	$00
	.byte	$00
	.byte	$00
	.byte	$00
	.byte	$00
	.byte	$00
	.byte	$00
	.byte	$00
	.byte	$06
	.byte	$00
	.byte	$00
	.byte	$00
	.byte	$00
	.byte	$00
	.byte	$00
	.byte	$00
	.byte	$09
	.byte	$00
	.byte	$00
	.byte	$00
	.byte	$00
	.byte	$01
	.byte	$01
	.byte	$01
	.byte	$01
	.byte	$01
	.byte	$01
	.byte	$01
	.byte	$00
	.byte	$00
	.byte	$01
	.byte	$01
	.byte	$01
	.byte	$01
	.byte	$01
	.byte	$00
	.byte	$0B
	.byte	$0B
	.byte	$0B
	.byte	$0B
	.byte	$0B
	.byte	$0B
	.byte	$0B
	.byte	$0B
	.byte	$0B
	.byte	$0B
	.byte	$0B
	.byte	$0B
	.byte	$0B
	.byte	$0B
	.byte	$0B
	.byte	$0B
_bgPalette:
	.byte	$0F
	.byte	$11
	.byte	$21
	.byte	$30
	.byte	$0F
	.byte	$04
	.byte	$14
	.byte	$34
	.byte	$0F
	.byte	$16
	.byte	$29
	.byte	$30
	.byte	$0F
	.byte	$20
	.byte	$28
	.byte	$21
_playerFrames:
	.byte	$08
	.byte	$09
	.byte	$18
	.byte	$19
	.byte	$28
	.byte	$29
	.byte	$38
	.byte	$39
	.byte	$0A
	.byte	$0B
	.byte	$1A
	.byte	$1B
	.byte	$48
	.byte	$49
	.byte	$58
	.byte	$59
	.byte	$2A
	.byte	$2B
	.byte	$3A
	.byte	$3B
_glueFrames:
	.byte	$46
	.byte	$47
	.byte	$56
	.byte	$57
	.byte	$66
	.byte	$67
	.byte	$76
	.byte	$77
	.byte	$86
	.byte	$87
	.byte	$96
	.byte	$97
_glueSpriteDataTemplate:
	.byte	$00
	.byte	$00
	.byte	$46
	.byte	$00
	.byte	$08
	.byte	$00
	.byte	$47
	.byte	$00
	.byte	$00
	.byte	$08
	.byte	$56
	.byte	$00
	.byte	$08
	.byte	$08
	.byte	$57
	.byte	$00
	.byte	$80
_platformSpriteDataTemplate:
	.byte	$00
	.byte	$00
	.byte	$82
	.byte	$01
	.byte	$08
	.byte	$00
	.byte	$83
	.byte	$01
	.byte	$00
	.byte	$08
	.byte	$92
	.byte	$01
	.byte	$08
	.byte	$08
	.byte	$93
	.byte	$01
	.byte	$80
_enemyFrames:
	.byte	$06
	.byte	$07
	.byte	$16
	.byte	$17
	.byte	$26
	.byte	$27
	.byte	$36
	.byte	$37
_emptyFrame:
	.byte	$00
	.byte	$00
	.byte	$00
	.byte	$00
_fruitFrame:
	.byte	$20
	.byte	$21
	.byte	$30
	.byte	$31
_jewelFrame:
	.byte	$42
	.byte	$43
	.byte	$52
	.byte	$53
_enemySpriteDataTemplate:
	.byte	$00
	.byte	$00
	.byte	$00
	.byte	$03
	.byte	$08
	.byte	$00
	.byte	$00
	.byte	$03
	.byte	$00
	.byte	$08
	.byte	$00
	.byte	$03
	.byte	$08
	.byte	$08
	.byte	$00
	.byte	$03
	.byte	$80
_tileUpdateListInit:
	.byte	$00
	.byte	$00
	.byte	$00
	.byte	$00
	.byte	$00
	.byte	$00
	.byte	$00
	.byte	$00
	.byte	$00
	.byte	$00
	.byte	$00
	.byte	$00
	.byte	$00
	.byte	$00
	.byte	$00
	.byte	$00
	.byte	$00
	.byte	$00
	.byte	$00
	.byte	$00
	.byte	$00
	.byte	$00
	.byte	$00
	.byte	$00
	.byte	$00
	.byte	$00
	.byte	$00
	.byte	$FF
L0803:
	.byte	$30,$30,$30,$30,$30,$30,$00

.segment	"BSS"

.segment	"ZEROPAGE"
.segment	"BSS"
.segment	"ZEROPAGE"
_oam_off:
	.res	1,$00
.segment	"ZEROPAGE"
_frameCount:
	.res	1,$00
.segment	"ZEROPAGE"
_i:
	.res	1,$00
.segment	"ZEROPAGE"
_collisionIndex:
	.res	2,$00
.segment	"ZEROPAGE"
_leftSide:
	.res	1,$00
.segment	"ZEROPAGE"
_rightSide:
	.res	1,$00
.segment	"ZEROPAGE"
_topSide:
	.res	1,$00
.segment	"ZEROPAGE"
_bottomSide:
	.res	1,$00
.segment	"ZEROPAGE"
_pad:
	.res	1,$00
.segment	"ZEROPAGE"
_oamSpriteIndex:
	.res	1,$00
.segment	"ZEROPAGE"
_horizontalCollideCheck:
	.res	1,$00
.segment	"ZEROPAGE"
_verticalCollideCheck:
	.res	1,$00
.segment	"ZEROPAGE"
_collideBottom:
	.res	1,$00
.segment	"ZEROPAGE"
_enemyColliding:
	.res	1,$00
.segment	"ZEROPAGE"
_playerStartX:
	.res	1,$00
.segment	"ZEROPAGE"
_playerStartY:
	.res	1,$00
.segment	"ZEROPAGE"
_levelComplete:
	.res	1,$00
.segment	"BSS"
_collisionMap:
	.res	240,$00
.segment	"BSS"
_touch:
	.res	1,$00
.segment	"BSS"
_palSprites:
	.res	4,$00
.segment	"BSS"
_collisionLeft:
	.res	1,$00
.segment	"BSS"
_collisionRight:
	.res	1,$00
.segment	"BSS"
_playerDir:
	.res	1,$00
.segment	"BSS"
_playerEnemyColliding:
	.res	1,$00
.segment	"BSS"
_playerLives:
	.res	1,$00
.segment	"BSS"
_playerAnimationCounter:
	.res	1,$00
.segment	"BSS"
_nametableUpdateList:
	.res	2,$00
.segment	"BSS"
_glueData:
	.res	23,$00
.segment	"BSS"
_gluePointer:
	.res	2,$00
.segment	"BSS"
_glueIndex:
	.res	1,$00
.segment	"BSS"
_glueColliding:
	.res	1,$00
.segment	"BSS"
_glueCollidedIndex:
	.res	1,$00
.segment	"BSS"
_glueTop:
	.res	1,$00
.segment	"BSS"
_glueLeft:
	.res	1,$00
.segment	"BSS"
_glueRight:
	.res	1,$00
.segment	"BSS"
_glueBottom:
	.res	1,$00
.segment	"BSS"
_platformData:
	.res	12,$00
.segment	"BSS"
_platformPointer:
	.res	2,$00
.segment	"BSS"
_platformIndex:
	.res	1,$00
.segment	"BSS"
_numEnemies:
	.res	1,$00
.segment	"BSS"
_enemyTop:
	.res	1,$00
.segment	"BSS"
_enemyBottom:
	.res	1,$00
.segment	"BSS"
_enemyLeft:
	.res	1,$00
.segment	"BSS"
_enemyRight:
	.res	1,$00
.segment	"BSS"
_enemyData:
	.res	30,$00
.segment	"BSS"
_enemySpriteData:
	.res	170,$00
.segment	"BSS"
_currentEnemy:
	.res	2,$00
.segment	"BSS"
_tileUpdateList:
	.res	28,$00
.segment	"BSS"
_decadeCount:
	.res	1,$00
.segment	"BSS"
_valueToConvert:
	.res	2,$00
.segment	"BSS"
_sSpriteIndex:
	.res	1,$00
.segment	"BSS"
_sFrameIndex:
	.res	1,$00

; ---------------------------------------------------------------
; void __near__ setupMap (void)
; ---------------------------------------------------------------

.segment	"CODE"

.proc	_setupMap: near

.segment	"RODATA"

L0578:
	.byte	$00
	.byte	$00
	.byte	$00
	.byte	$40
	.res	2,$00
L057E:
	.byte	$00
	.byte	$00
	.byte	$01
	.byte	$40

.segment	"CODE"

;
; u8 mapX = 0;
;
	jsr     decsp1
	lda     #$00
	jsr     pusha
;
; u8 mapY = 0;
;
	jsr     pusha
;
; u8 index = 0;
;
	jsr     pusha
;
; enemy newEnemy = { 0, 0, 0, PAD_LEFT };
;
	jsr     decsp6
	ldy     #$05
L057D:	lda     L0578,y
	sta     (sp),y
	dey
	bpl     L057D
;
; platform newPlatform = { 0, 0, 1, PAD_LEFT };
;
	jsr     decsp4
	ldy     #$03
L0583:	lda     L057E,y
	sta     (sp),y
	dey
	bpl     L0583
;
; memcpy(collisionMap, map2_coll, COLLISION_MAP_SIZE);
;
	ldy     #$00
L0588:	lda     _map2_coll,y
	sta     _collisionMap,y
	iny
	cpy     #$F0
	bne     L0588
;
; enemyIndex = 0;
;
	lda     #$00
	sta     _enemyIndex
;
; platformIndex = 0;
;
	sta     _platformIndex
;
; ppu_off();
;
	jsr     _ppu_off
;
; for ( index = 0; index < sizeof(MAX_GLUE_COUNT); ++index ) {
;
	lda     #$00
	ldy     #$0A
L0C4D:	sta     (sp),y
	cmp     #$02
	bcs     L0C50
;
; gluePointer = &(glueData[index]);
;
	lda     (sp),y
	jsr     pusha0
	lda     #$17
	jsr     tosmula0
	clc
	adc     #<(_glueData)
	tay
	txa
	adc     #>(_glueData)
	tax
	tya
	sta     _gluePointer
	stx     _gluePointer+1
;
; gluePointer->isActive = 0;
;
	sta     sreg
	stx     sreg+1
	lda     #$00
	ldy     #$03
	sta     (sreg),y
;
; for ( index = 0; index < sizeof(MAX_GLUE_COUNT); ++index ) {
;
	ldy     #$0A
	clc
	lda     #$01
	adc     (sp),y
	jmp     L0C4D
;
; for ( index = 0; index < COLLISION_MAP_SIZE; ++index ) {
;
L0C50:	lda     #$00
L0C4F:	sta     (sp),y
	cmp     #$F0
	jcs     L0C5E
;
; collisionByte = collisionMap[index];
;
	lda     (sp),y
	tay
	lda     _collisionMap,y
	ldy     #$0D
	sta     (sp),y
;
; if ( collisionByte == TILE_PLAYER ) {  
;
	cmp     #$09
	bne     L0C52
;
; playerStartX = mapX << 4;
;
	dey
	lda     (sp),y
	asl     a
	asl     a
	asl     a
	asl     a
	sta     _playerStartX
;
; playerStartY = (mapY << 4) - 1;
;
	dey
	lda     (sp),y
	asl     a
	asl     a
	asl     a
	asl     a
	sec
	sbc     #$01
	sta     _playerStartY
;
; } else if ( ( collisionByte == TILE_ENEMY1START_RIGHT ) || ( collisionByte == TILE_ENEMY1START_LEFT ) ) {
;
	jmp     L0600
L0C52:	lda     (sp),y
	cmp     #$05
	beq     L0C53
	cmp     #$04
	jne     L0C59
;
; if ( enemyIndex < MAX_ENEMIES ) {
;
L0C53:	lda     _enemyIndex
	cmp     #$05
	jcs     L0600
;
; enemyData[enemyIndex] = newEnemy;
;
	ldx     #$00
	lda     _enemyIndex
	jsr     mulax6
	clc
	adc     #<(_enemyData)
	tay
	txa
	adc     #>(_enemyData)
	tax
	tya
	jsr     pushax
	lda     sp
	ldx     sp+1
	clc
	adc     #$06
	bcc     L05BC
	inx
L05BC:	jsr     pushax
	ldx     #$00
	lda     #$06
	jsr     _memcpy
;
; enemyData[enemyIndex].x = mapX << 4;
;
	ldx     #$00
	lda     _enemyIndex
	jsr     mulax6
	clc
	adc     #<(_enemyData)
	sta     ptr1
	txa
	adc     #>(_enemyData)
	sta     ptr1+1
	ldy     #$0C
	lda     (sp),y
	asl     a
	asl     a
	asl     a
	asl     a
	ldy     #$00
	sta     (ptr1),y
;
; enemyData[enemyIndex].y = (mapY << 4) - 1;
;
	ldx     #$00
	lda     _enemyIndex
	jsr     mulax6
	clc
	adc     #<(_enemyData)
	sta     ptr1
	txa
	adc     #>(_enemyData)
	sta     ptr1+1
	ldy     #$0B
	lda     (sp),y
	asl     a
	asl     a
	asl     a
	asl     a
	sec
	sbc     #$01
	ldy     #$01
	sta     (ptr1),y
;
; enemyData[enemyIndex].direction = ( collisionByte == TILE_ENEMY1START_RIGHT ) ? PAD_RIGHT : PAD_LEFT;
;
	ldx     #$00
	lda     _enemyIndex
	jsr     mulax6
	clc
	adc     #<(_enemyData)
	sta     ptr1
	txa
	adc     #>(_enemyData)
	sta     ptr1+1
	ldy     #$0D
	lda     (sp),y
	cmp     #$05
	bne     L0C54
	lda     #$80
	jmp     L0C55
L0C54:	lda     #$40
L0C55:	ldy     #$03
	sta     (ptr1),y
;
; enemyData[enemyIndex].state = ENEMY_STATE_NORMAL;
;
	ldx     #$00
	lda     _enemyIndex
	jsr     mulax6
	clc
	adc     #<(_enemyData)
	sta     ptr1
	txa
	adc     #>(_enemyData)
	sta     ptr1+1
	lda     #$00
	iny
	sta     (ptr1),y
;
; for ( i = 0; i < ENEMY_DATA_SIZE; ++i ) {
;
	sta     _i
L0C56:	lda     _i
	cmp     #$11
	bcs     L0C57
;
; enemySpriteData[enemyIndex][i] = enemySpriteDataTemplate[i];
;
	lda     _enemyIndex
	jsr     pusha0
	lda     #$11
	jsr     tosmula0
	clc
	adc     #<(_enemySpriteData)
	tay
	txa
	adc     #>(_enemySpriteData)
	tax
	tya
	clc
	adc     _i
	bcc     L0C4C
	inx
L0C4C:	sta     ptr1
	stx     ptr1+1
	ldy     _i
	lda     _enemySpriteDataTemplate,y
	ldy     #$00
	sta     (ptr1),y
;
; for ( i = 0; i < ENEMY_DATA_SIZE; ++i ) {
;
	inc     _i
	jmp     L0C56
;
; setSpriteFrame(enemySpriteData[enemyIndex], enemyFrames[0]);
;
L0C57:	lda     _enemyIndex
	jsr     pusha0
	lda     #$11
	jsr     tosmula0
	clc
	adc     #<(_enemySpriteData)
	tay
	txa
	adc     #>(_enemySpriteData)
	tax
	tya
	jsr     pushax
	lda     #<(_enemyFrames)
	ldx     #>(_enemyFrames)
	jsr     _setSpriteFrame
;
; ++enemyIndex;    
;
	inc     _enemyIndex
;
; } else if ( collisionByte == TILE_PLATFORM ) {
;
	jmp     L0600
L0C59:	lda     (sp),y
	cmp     #$0D
	jne     L0C5B
;
; if ( platformIndex < MAX_PLATFORM_COUNT ) {
;
	lda     _platformIndex
	cmp     #$03
	jcs     L0600
;
; platformData[platformIndex] = newPlatform;
;
	ldx     #$00
	lda     _platformIndex
	jsr     aslax2
	clc
	adc     #<(_platformData)
	tay
	txa
	adc     #>(_platformData)
	tax
	tya
	jsr     pushax
	ldy     #$05
	jsr     ldeaxysp
	ldy     #$00
	jsr     steaxspidx
;
; platformData[platformIndex].x = mapX << 4;
;
	ldx     #$00
	lda     _platformIndex
	jsr     aslax2
	clc
	adc     #<(_platformData)
	sta     ptr1
	txa
	adc     #>(_platformData)
	sta     ptr1+1
	ldy     #$0C
	lda     (sp),y
	asl     a
	asl     a
	asl     a
	asl     a
	ldy     #$00
	sta     (ptr1),y
;
; platformData[platformIndex].y = (mapY << 4) - 1;
;
	ldx     #$00
	lda     _platformIndex
	jsr     aslax2
	clc
	adc     #<(_platformData)
	sta     sreg
	txa
	adc     #>(_platformData)
	sta     sreg+1
	ldy     #$0B
	lda     (sp),y
	asl     a
	asl     a
	asl     a
	asl     a
	sec
	sbc     #$01
	ldy     #$01
	sta     (sreg),y
;
; platformData[platformIndex].isActive = 1;
;
	ldx     #$00
	lda     _platformIndex
	jsr     aslax2
	clc
	adc     #<(_platformData)
	sta     sreg
	txa
	adc     #>(_platformData)
	sta     sreg+1
	tya
	iny
	sta     (sreg),y
;
; ++platformIndex;
;
	inc     _platformIndex
;
; } else if ( collisionByte == TILE_FRUIT ) {
;
	jmp     L0600
L0C5B:	lda     (sp),y
	cmp     #$08
	bne     L0C5D
;
; putMapTile(mapX << 1, mapY << 1, fruitFrame);
;
	jsr     decsp2
	iny
	lda     (sp),y
	asl     a
	ldy     #$01
	sta     (sp),y
	ldy     #$0D
	lda     (sp),y
	asl     a
	ldy     #$00
	sta     (sp),y
	lda     #<(_fruitFrame)
	ldx     #>(_fruitFrame)
;
; } else if ( collisionByte == TILE_JEWEL ) {
;
	jmp     L0C4E
L0C5D:	lda     (sp),y
	cmp     #$0C
	bne     L0600
;
; putMapTile(mapX << 1, mapY << 1, jewelFrame);
;
	jsr     decsp2
	iny
	lda     (sp),y
	asl     a
	ldy     #$01
	sta     (sp),y
	ldy     #$0D
	lda     (sp),y
	asl     a
	ldy     #$00
	sta     (sp),y
	lda     #<(_jewelFrame)
	ldx     #>(_jewelFrame)
L0C4E:	jsr     _putMapTile
;
; ++mapX;
;
L0600:	ldy     #$0C
	clc
	lda     #$01
	adc     (sp),y
	sta     (sp),y
;
; if ( mapX > 15 ) {
;
	cmp     #$10
	bcc     L059F
;
; mapX = 0;
;
	lda     #$00
	sta     (sp),y
;
; ++mapY;
;
	dey
	clc
	lda     #$01
	adc     (sp),y
	sta     (sp),y
;
; for ( index = 0; index < COLLISION_MAP_SIZE; ++index ) {
;
L059F:	ldy     #$0A
	clc
	lda     #$01
	adc     (sp),y
	jmp     L0C4F
;
; playerX = playerStartX;
;
L0C5E:	lda     _playerStartX
	sta     _playerX
;
; playerY = playerStartY;
;
	lda     _playerStartY
	sta     _playerY
;
; numEnemies = enemyIndex;
;
	lda     _enemyIndex
	sta     _numEnemies
;
; ppu_on_all(); //enable rendering 
;
	jsr     _ppu_on_all
;
; }
;
	ldy     #$0E
	jmp     addysp

.endproc

; ---------------------------------------------------------------
; void __near__ __fastcall__ setSpriteFrame (__near__ unsigned char *, __near__ const unsigned char *)
; ---------------------------------------------------------------

.segment	"CODE"

.proc	_setSpriteFrame: near

.segment	"CODE"

;
; void __fastcall__ setSpriteFrame(u8 *sprite, const u8 *frame) {
;
	jsr     pushax
;
; sSpriteIndex = 2;
;
	lda     #$02
	sta     _sSpriteIndex
;
; sFrameIndex = 0;
;
	lda     #$00
	sta     _sFrameIndex
;
; *(sprite + 2) = *(frame);
;
	ldy     #$03
	lda     (sp),y
	tax
	dey
	lda     (sp),y
	clc
	adc     #$02
	bcc     L06B6
	inx
L06B6:	jsr     pushax
	ldy     #$03
	lda     (sp),y
	sta     ptr1+1
	dey
	lda     (sp),y
	sta     ptr1
	ldy     #$00
	lda     (ptr1),y
	jsr     staspidx
;
; *(sprite + 6) = *(frame + 1);
;
	ldy     #$03
	lda     (sp),y
	tax
	dey
	lda     (sp),y
	clc
	adc     #$06
	bcc     L06BB
	inx
L06BB:	jsr     pushax
	ldy     #$03
	lda     (sp),y
	tax
	dey
	lda     (sp),y
	dey
	sta     ptr1
	stx     ptr1+1
	lda     (ptr1),y
	dey
	jsr     staspidx
;
; *(sprite + 10) = *(frame + 2);
;
	ldy     #$03
	lda     (sp),y
	tax
	dey
	lda     (sp),y
	clc
	adc     #$0A
	bcc     L06C1
	inx
L06C1:	jsr     pushax
	ldy     #$03
	lda     (sp),y
	tax
	dey
	lda     (sp),y
	sta     ptr1
	stx     ptr1+1
	lda     (ptr1),y
	ldy     #$00
	jsr     staspidx
;
; *(sprite + 14) = *(frame + 3);
;
	ldy     #$03
	lda     (sp),y
	tax
	dey
	lda     (sp),y
	clc
	adc     #$0E
	bcc     L06C7
	inx
L06C7:	jsr     pushax
	ldy     #$03
	lda     (sp),y
	tax
	dey
	lda     (sp),y
	iny
	sta     ptr1
	stx     ptr1+1
	lda     (ptr1),y
	ldy     #$00
	jsr     staspidx
;
; }
;
	jmp     incsp4

.endproc

; ---------------------------------------------------------------
; void __near__ __fastcall__ setSpritePalette (__near__ unsigned char *, unsigned char)
; ---------------------------------------------------------------

.segment	"CODE"

.proc	_setSpritePalette: near

.segment	"CODE"

;
; void __fastcall__ setSpritePalette(u8 *sprite, u8 palette) {
;
	jsr     pusha
;
; for ( i = 3; i <= 15; i = i + 4 ) {
;
	jsr     decsp1
	lda     #$03
	ldy     #$00
L0C5F:	sta     (sp),y
	cmp     #$10
	bcs     L06CD
;
; sprite[i] &= ~(0x3);
;
	lda     (sp),y
	clc
	ldy     #$02
	adc     (sp),y
	sta     ptr1
	lda     #$00
	iny
	adc     (sp),y
	sta     ptr1+1
	ldy     #$00
	lda     (ptr1),y
	and     #$FC
	sta     (ptr1),y
;
; sprite[i] |= palette;
;
	lda     (sp),y
	clc
	ldy     #$02
	adc     (sp),y
	pha
	lda     #$00
	iny
	adc     (sp),y
	tax
	pla
	jsr     pushax
	sta     ptr1
	stx     ptr1+1
	ldy     #$00
	lda     (ptr1),y
	sta     ptr1
	ldy     #$03
	lda     (sp),y
	ora     ptr1
	ldy     #$00
	jsr     staspidx
;
; for ( i = 3; i <= 15; i = i + 4 ) {
;
	ldy     #$00
	lda     (sp),y
	clc
	adc     #$04
	jmp     L0C5F
;
; }
;
L06CD:	jmp     incsp4

.endproc

; ---------------------------------------------------------------
; void __near__ __fastcall__ updateMapTile (unsigned char, unsigned char, __near__ const unsigned char *)
; ---------------------------------------------------------------

.segment	"CODE"

.proc	_updateMapTile: near

.segment	"CODE"

;
; void __fastcall__ updateMapTile(u8 mapX, u8 mapY, const u8 * tileFrame) {
;
	jsr     pushax
;
; tileUpdateList[0] = MSB(NTADR_A(mapX, mapY));
;
	ldy     #$02
	ldx     #$00
	lda     (sp),y
	jsr     aslax4
	stx     tmp1
	asl     a
	rol     tmp1
	sta     ptr1
	iny
	lda     (sp),y
	ora     ptr1
	lda     tmp1
	ora     #$20
	sta     _tileUpdateList
;
; tileUpdateList[1] = LSB(NTADR_A(mapX, mapY));
;
	dey
	ldx     #$00
	lda     (sp),y
	jsr     aslax4
	stx     tmp1
	asl     a
	rol     tmp1
	sta     ptr1
	iny
	lda     (sp),y
	ora     ptr1
	sta     _tileUpdateList+1
	lda     tmp1
	ora     #$20
;
; tileUpdateList[2] = tileFrame[0];
;
	ldy     #$01
	lda     (sp),y
	sta     ptr1+1
	dey
	lda     (sp),y
	sta     ptr1
	lda     (ptr1),y
	sta     _tileUpdateList+2
;
; tileUpdateList[3] = MSB(NTADR_A(mapX + 1, mapY));
;
	ldy     #$02
	ldx     #$00
	lda     (sp),y
	jsr     aslax4
	stx     tmp1
	asl     a
	rol     tmp1
	sta     ptr1
	ldx     #$00
	iny
	lda     (sp),y
	clc
	adc     #$01
	bcc     L0647
	inx
L0647:	ora     ptr1
	txa
	ora     tmp1
	ora     #$20
	sta     _tileUpdateList+3
;
; tileUpdateList[4] = LSB(NTADR_A(mapX + 1, mapY));
;
	dey
	ldx     #$00
	lda     (sp),y
	jsr     aslax4
	stx     tmp1
	asl     a
	rol     tmp1
	sta     ptr1
	ldx     #$00
	iny
	lda     (sp),y
	clc
	adc     #$01
	bcc     L0653
	inx
L0653:	ora     ptr1
	sta     _tileUpdateList+4
	txa
	ora     tmp1
	ora     #$20
;
; tileUpdateList[5] = tileFrame[1];
;
	ldy     #$01
	lda     (sp),y
	sta     ptr1+1
	dey
	lda     (sp),y
	sta     ptr1
	iny
	lda     (ptr1),y
	sta     _tileUpdateList+5
;
; tileUpdateList[6] = MSB(NTADR_A(mapX, mapY + 1));
;
	iny
	ldx     #$00
	lda     (sp),y
	clc
	adc     #$01
	bcc     L0662
	inx
L0662:	jsr     shlax4
	stx     tmp1
	asl     a
	rol     tmp1
	sta     ptr1
	iny
	lda     (sp),y
	ora     ptr1
	lda     tmp1
	ora     #$20
	sta     _tileUpdateList+6
;
; tileUpdateList[7] = LSB(NTADR_A(mapX, mapY + 1));
;
	dey
	ldx     #$00
	lda     (sp),y
	clc
	adc     #$01
	bcc     L066E
	inx
L066E:	jsr     shlax4
	stx     tmp1
	asl     a
	rol     tmp1
	sta     ptr1
	iny
	lda     (sp),y
	ora     ptr1
	sta     _tileUpdateList+7
	lda     tmp1
	ora     #$20
;
; tileUpdateList[8] = tileFrame[2];
;
	ldy     #$01
	lda     (sp),y
	sta     ptr1+1
	dey
	lda     (sp),y
	sta     ptr1
	ldy     #$02
	lda     (ptr1),y
	sta     _tileUpdateList+8
;
; tileUpdateList[9] = MSB(NTADR_A(mapX + 1, mapY + 1));
;
	ldx     #$00
	lda     (sp),y
	clc
	adc     #$01
	bcc     L067E
	inx
L067E:	jsr     shlax4
	stx     tmp1
	asl     a
	rol     tmp1
	sta     ptr1
	ldx     #$00
	iny
	lda     (sp),y
	clc
	adc     #$01
	bcc     L0680
	inx
L0680:	ora     ptr1
	txa
	ora     tmp1
	ora     #$20
	sta     _tileUpdateList+9
;
; tileUpdateList[10] = LSB(NTADR_A(mapX + 1, mapY + 1));
;
	dey
	ldx     #$00
	lda     (sp),y
	clc
	adc     #$01
	bcc     L068B
	inx
L068B:	jsr     shlax4
	stx     tmp1
	asl     a
	rol     tmp1
	sta     ptr1
	ldx     #$00
	iny
	lda     (sp),y
	clc
	adc     #$01
	bcc     L068D
	inx
L068D:	ora     ptr1
	sta     _tileUpdateList+10
	txa
	ora     tmp1
	ora     #$20
;
; tileUpdateList[11] = tileFrame[3];
;
	ldy     #$01
	lda     (sp),y
	sta     ptr1+1
	dey
	lda     (sp),y
	sta     ptr1
	ldy     #$03
	lda     (ptr1),y
	sta     _tileUpdateList+11
;
; set_vram_update(tileUpdateList); 
;
	lda     #<(_tileUpdateList)
	ldx     #>(_tileUpdateList)
	jsr     _set_vram_update
;
; }
;
	jmp     incsp4

.endproc

; ---------------------------------------------------------------
; void __near__ __fastcall__ putMapTile (unsigned char, unsigned char, __near__ const unsigned char *)
; ---------------------------------------------------------------

.segment	"CODE"

.proc	_putMapTile: near

.segment	"CODE"

;
; void __fastcall__ putMapTile(u8 mapX, u8 mapY, const u8 * tileFrame) {
;
	jsr     pushax
;
; vram_adr(NTADR_A(mapX, mapY++));
;
	ldy     #$02
	ldx     #$00
	lda     (sp),y
	pha
	clc
	adc     #$01
	sta     (sp),y
	pla
	jsr     aslax4
	stx     tmp1
	asl     a
	rol     tmp1
	sta     ptr1
	iny
	lda     (sp),y
	ora     ptr1
	pha
	lda     tmp1
	ora     #$20
	tax
	pla
	jsr     _vram_adr
;
; vram_put(*tileFrame++);
;
	ldy     #$01
	lda     (sp),y
	tax
	dey
	lda     (sp),y
	sta     regsave
	stx     regsave+1
	clc
	adc     #$01
	bcc     L069E
	inx
L069E:	jsr     stax0sp
	ldy     #$00
	lda     (regsave),y
	jsr     _vram_put
;
; vram_put(*tileFrame++);
;
	ldy     #$01
	lda     (sp),y
	tax
	dey
	lda     (sp),y
	sta     regsave
	stx     regsave+1
	clc
	adc     #$01
	bcc     L06A1
	inx
L06A1:	jsr     stax0sp
	ldy     #$00
	lda     (regsave),y
	jsr     _vram_put
;
; vram_adr(NTADR_A(mapX, mapY));
;
	ldy     #$02
	ldx     #$00
	lda     (sp),y
	jsr     aslax4
	stx     tmp1
	asl     a
	rol     tmp1
	sta     ptr1
	iny
	lda     (sp),y
	ora     ptr1
	pha
	lda     tmp1
	ora     #$20
	tax
	pla
	jsr     _vram_adr
;
; vram_put(*tileFrame++);
;
	ldy     #$01
	lda     (sp),y
	tax
	dey
	lda     (sp),y
	sta     regsave
	stx     regsave+1
	clc
	adc     #$01
	bcc     L06AB
	inx
L06AB:	jsr     stax0sp
	ldy     #$00
	lda     (regsave),y
	jsr     _vram_put
;
; vram_put(*tileFrame++);
;
	ldy     #$01
	lda     (sp),y
	tax
	dey
	lda     (sp),y
	sta     regsave
	stx     regsave+1
	clc
	adc     #$01
	bcc     L06AE
	inx
L06AE:	jsr     stax0sp
	ldy     #$00
	lda     (regsave),y
	jsr     _vram_put
;
; }
;
	jmp     incsp4

.endproc

; ---------------------------------------------------------------
; void __near__ __fastcall__ putStr (unsigned int, __near__ const unsigned char *)
; ---------------------------------------------------------------

.segment	"CODE"

.proc	_putStr: near

.segment	"CODE"

;
; {
;
	jsr     pushax
;
; vram_adr(adr);
;
	ldy     #$03
	lda     (sp),y
	tax
	dey
	lda     (sp),y
	jsr     _vram_adr
;
; if(!*str) break;
;
L0616:	ldy     #$01
	lda     (sp),y
	sta     ptr1+1
	dey
	lda     (sp),y
	sta     ptr1
	lda     (ptr1),y
	beq     L0617
;
; vram_put((*str++) + 0xA0); // +0xA0 because ASCII code 0x20 is placed in tile C0 of the CHR
;
	iny
	lda     (sp),y
	tax
	dey
	lda     (sp),y
	sta     regsave
	stx     regsave+1
	clc
	adc     #$01
	bcc     L061F
	inx
L061F:	jsr     stax0sp
	ldy     #$00
	lda     (regsave),y
	clc
	adc     #$A0
	jsr     _vram_put
;
; while(1)
;
	jmp     L0616
;
; }
;
L0617:	jmp     incsp4

.endproc

; ---------------------------------------------------------------
; void __near__ __fastcall__ setSpritePriority (__near__ unsigned char *, unsigned char)
; ---------------------------------------------------------------

.segment	"CODE"

.proc	_setSpritePriority: near

.segment	"CODE"

;
; void __fastcall__ setSpritePriority(u8 *sprite, u8 priority) {
;
	jsr     pusha
;
; if ( priority ) {
;
	ldy     #$00
	lda     (sp),y
	beq     L06DE
;
; sprite[3] |= OAM_BEHIND;
;
	ldy     #$02
	lda     (sp),y
	sta     ptr1+1
	dey
	lda     (sp),y
	sta     ptr1
	ldy     #$03
	lda     (ptr1),y
	ora     #$20
	sta     (ptr1),y
;
; sprite[7] |= OAM_BEHIND;
;
	dey
	lda     (sp),y
	sta     ptr1+1
	dey
	lda     (sp),y
	sta     ptr1
	ldy     #$07
	lda     (ptr1),y
	ora     #$20
	sta     (ptr1),y
;
; sprite[11] |= OAM_BEHIND;
;
	ldy     #$02
	lda     (sp),y
	sta     ptr1+1
	dey
	lda     (sp),y
	sta     ptr1
	ldy     #$0B
	lda     (ptr1),y
	ora     #$20
	sta     (ptr1),y
;
; sprite[15] |= OAM_BEHIND;
;
	ldy     #$02
	lda     (sp),y
	sta     ptr1+1
	dey
	lda     (sp),y
	sta     ptr1
	ldy     #$0F
	lda     (ptr1),y
	ora     #$20
;
; } else {
;
	jmp     L0C60
;
; sprite[3] &= ~OAM_BEHIND;
;
L06DE:	ldy     #$02
	lda     (sp),y
	sta     ptr1+1
	dey
	lda     (sp),y
	sta     ptr1
	ldy     #$03
	lda     (ptr1),y
	and     #$DF
	sta     (ptr1),y
;
; sprite[7] &= ~OAM_BEHIND;
;
	dey
	lda     (sp),y
	sta     ptr1+1
	dey
	lda     (sp),y
	sta     ptr1
	ldy     #$07
	lda     (ptr1),y
	and     #$DF
	sta     (ptr1),y
;
; sprite[11] &= ~OAM_BEHIND;
;
	ldy     #$02
	lda     (sp),y
	sta     ptr1+1
	dey
	lda     (sp),y
	sta     ptr1
	ldy     #$0B
	lda     (ptr1),y
	and     #$DF
	sta     (ptr1),y
;
; sprite[15] &= ~OAM_BEHIND;
;
	ldy     #$02
	lda     (sp),y
	sta     ptr1+1
	dey
	lda     (sp),y
	sta     ptr1
	ldy     #$0F
	lda     (ptr1),y
	and     #$DF
L0C60:	sta     (ptr1),y
;
; }
;
	jmp     incsp3

.endproc

; ---------------------------------------------------------------
; void __near__ __fastcall__ flipSprite (__near__ unsigned char *, unsigned char)
; ---------------------------------------------------------------

.segment	"CODE"

.proc	_flipSprite: near

.segment	"CODE"

;
; void __fastcall__ flipSprite(u8 *sprite, u8 flip) {
;
	jsr     pusha
;
; if ( flip ) {
;
	ldy     #$00
	lda     (sp),y
	jeq     L06FA
;
; sprite[0] = 8;
;
	ldy     #$02
	lda     (sp),y
	sta     ptr1+1
	dey
	lda     (sp),y
	sta     ptr1
	lda     #$08
	dey
	sta     (ptr1),y
;
; sprite[3] |= OAM_FLIP_H;
;
	ldy     #$02
	lda     (sp),y
	sta     ptr1+1
	dey
	lda     (sp),y
	sta     ptr1
	ldy     #$03
	lda     (ptr1),y
	ora     #$40
	sta     (ptr1),y
;
; sprite[4] = 0;
;
	dey
	lda     (sp),y
	sta     ptr1+1
	dey
	lda     (sp),y
	sta     ptr1
	lda     #$00
	ldy     #$04
	sta     (ptr1),y
;
; sprite[7] |= OAM_FLIP_H;
;
	ldy     #$02
	lda     (sp),y
	sta     ptr1+1
	dey
	lda     (sp),y
	sta     ptr1
	ldy     #$07
	lda     (ptr1),y
	ora     #$40
	sta     (ptr1),y
;
; sprite[8] = 8;
;
	ldy     #$02
	lda     (sp),y
	sta     ptr1+1
	dey
	lda     (sp),y
	sta     ptr1
	lda     #$08
	tay
	sta     (ptr1),y
;
; sprite[11] |= OAM_FLIP_H;
;
	ldy     #$02
	lda     (sp),y
	sta     ptr1+1
	dey
	lda     (sp),y
	sta     ptr1
	ldy     #$0B
	lda     (ptr1),y
	ora     #$40
	sta     (ptr1),y
;
; sprite[12] = 0;
;
	ldy     #$02
	lda     (sp),y
	sta     ptr1+1
	dey
	lda     (sp),y
	sta     ptr1
	lda     #$00
	ldy     #$0C
	sta     (ptr1),y
;
; sprite[15] |= OAM_FLIP_H;
;
	ldy     #$02
	lda     (sp),y
	sta     ptr1+1
	dey
	lda     (sp),y
	sta     ptr1
	ldy     #$0F
	lda     (ptr1),y
	ora     #$40
;
; } else {
;
	jmp     L0C61
;
; sprite[0] = 0;
;
L06FA:	ldy     #$02
	lda     (sp),y
	sta     ptr1+1
	dey
	lda     (sp),y
	sta     ptr1
	lda     #$00
	dey
	sta     (ptr1),y
;
; sprite[3] &= ~OAM_FLIP_H;
;
	ldy     #$02
	lda     (sp),y
	sta     ptr1+1
	dey
	lda     (sp),y
	sta     ptr1
	ldy     #$03
	lda     (ptr1),y
	and     #$BF
	sta     (ptr1),y
;
; sprite[4] = 8;
;
	dey
	lda     (sp),y
	sta     ptr1+1
	dey
	lda     (sp),y
	sta     ptr1
	lda     #$08
	ldy     #$04
	sta     (ptr1),y
;
; sprite[7] &= ~OAM_FLIP_H;
;
	ldy     #$02
	lda     (sp),y
	sta     ptr1+1
	dey
	lda     (sp),y
	sta     ptr1
	ldy     #$07
	lda     (ptr1),y
	and     #$BF
	sta     (ptr1),y
;
; sprite[8] = 0;
;
	ldy     #$02
	lda     (sp),y
	sta     ptr1+1
	dey
	lda     (sp),y
	sta     ptr1
	lda     #$00
	ldy     #$08
	sta     (ptr1),y
;
; sprite[11] &= ~OAM_FLIP_H;
;
	ldy     #$02
	lda     (sp),y
	sta     ptr1+1
	dey
	lda     (sp),y
	sta     ptr1
	ldy     #$0B
	lda     (ptr1),y
	and     #$BF
	sta     (ptr1),y
;
; sprite[12] = 8;
;
	ldy     #$02
	lda     (sp),y
	sta     ptr1+1
	dey
	lda     (sp),y
	sta     ptr1
	lda     #$08
	ldy     #$0C
	sta     (ptr1),y
;
; sprite[15] &= ~OAM_FLIP_H;  
;
	ldy     #$02
	lda     (sp),y
	sta     ptr1+1
	dey
	lda     (sp),y
	sta     ptr1
	ldy     #$0F
	lda     (ptr1),y
	and     #$BF
L0C61:	sta     (ptr1),y
;
; }
;
	jmp     incsp3

.endproc

; ---------------------------------------------------------------
; void __near__ spriteCount (void)
; ---------------------------------------------------------------

.segment	"CODE"

.proc	_spriteCount: near

.segment	"CODE"

;
; if ( ++enemySpriteCount >= numEnemies ) {
;
	inc     _enemySpriteCount
	lda     _enemySpriteCount
	cmp     _numEnemies
	bcc     L072E
;
; enemySpriteCount = 0;
;
	lda     #$00
	sta     _enemySpriteCount
;
; }
;
L072E:	rts

.endproc

; ---------------------------------------------------------------
; void __near__ updateEnemySprites (void)
; ---------------------------------------------------------------

.segment	"CODE"

.proc	_updateEnemySprites: near

.segment	"CODE"

;
; for ( i = 0; i < numEnemies; ++i ) {
;
	lda     #$00
	sta     _i
L0C62:	lda     _i
	cmp     _numEnemies
	bcc     L0C68
;
; }
;
	rts
;
; spriteCount();
;
L0C68:	jsr     _spriteCount
;
; spriteFlickerIndex = enemySpriteCount;
;
	lda     _enemySpriteCount
	sta     _spriteFlickerIndex
;
; currentEnemy = &(enemyData[spriteFlickerIndex]);
;
	ldx     #$00
	lda     _spriteFlickerIndex
	jsr     mulax6
	clc
	adc     #<(_enemyData)
	tay
	txa
	adc     #>(_enemyData)
	tax
	tya
	sta     _currentEnemy
	stx     _currentEnemy+1
;
; if ( currentEnemy->state == ENEMY_STATE_NORMAL ) {
;
	sta     ptr1
	stx     ptr1+1
	ldy     #$04
	lda     (ptr1),y
	bne     L0742
;
; if ( ( frameCount & 0x0F ) == 0x0F ) {
;
	lda     _frameCount
	and     #$0F
	cmp     #$0F
	bne     L0C63
;
; currentEnemy->frame ^= 1;
;
	lda     _currentEnemy
	sta     ptr1
	lda     _currentEnemy+1
	sta     ptr1+1
	ldy     #$02
	lda     (ptr1),y
	eor     #$01
	sta     (ptr1),y
;
; setSpriteFrame(enemySpriteData[spriteFlickerIndex], enemyFrames[currentEnemy->frame]);
;
	lda     _spriteFlickerIndex
	jsr     pusha0
	lda     #$11
	jsr     tosmula0
	clc
	adc     #<(_enemySpriteData)
	tay
	txa
	adc     #>(_enemySpriteData)
	tax
	tya
	jsr     pushax
	lda     _currentEnemy
	sta     ptr1
	lda     _currentEnemy+1
	sta     ptr1+1
	ldy     #$02
	ldx     #$00
	lda     (ptr1),y
	jsr     aslax2
	clc
	adc     #<(_enemyFrames)
	tay
	txa
	adc     #>(_enemyFrames)
	tax
	tya
	jsr     _setSpriteFrame
;
; setSpritePalette(enemySpriteData[spriteFlickerIndex], 0x3);
;
L0C63:	lda     _spriteFlickerIndex
	jsr     pusha0
	lda     #$11
	jsr     tosmula0
	clc
	adc     #<(_enemySpriteData)
	tay
	txa
	adc     #>(_enemySpriteData)
	tax
	tya
	jsr     pushax
	lda     #$03
	jsr     _setSpritePalette
;
; if ( ( currentEnemy->state == ENEMY_STATE_NORMAL ) || ( currentEnemy->state == ENEMY_STATE_GLUED ) ) {
;
L0742:	lda     _currentEnemy
	sta     ptr1
	lda     _currentEnemy+1
	sta     ptr1+1
	ldy     #$04
	lda     (ptr1),y
	beq     L0C65
	lda     _currentEnemy
	sta     ptr1
	lda     _currentEnemy+1
	sta     ptr1+1
	lda     (ptr1),y
	cmp     #$01
	bne     L0C67
;
; oamSpriteIndex = oam_meta_spr(currentEnemy->x, currentEnemy->y, oamSpriteIndex, enemySpriteData[spriteFlickerIndex]);    
;
L0C65:	jsr     decsp3
	lda     _currentEnemy
	sta     ptr1
	lda     _currentEnemy+1
	sta     ptr1+1
	ldy     #$00
	lda     (ptr1),y
	ldy     #$02
	sta     (sp),y
	lda     _currentEnemy
	sta     ptr1
	lda     _currentEnemy+1
	sta     ptr1+1
	dey
	lda     (ptr1),y
	sta     (sp),y
	lda     _oamSpriteIndex
	dey
	sta     (sp),y
	lda     _spriteFlickerIndex
	jsr     pusha0
	lda     #$11
	jsr     tosmula0
	clc
	adc     #<(_enemySpriteData)
	tay
	txa
	adc     #>(_enemySpriteData)
	tax
	tya
	jsr     _oam_meta_spr
	sta     _oamSpriteIndex
;
; for ( i = 0; i < numEnemies; ++i ) {
;
L0C67:	inc     _i
	jmp     L0C62

.endproc

; ---------------------------------------------------------------
; void __near__ updateGlueSprites (void)
; ---------------------------------------------------------------

.segment	"CODE"

.proc	_updateGlueSprites: near

.segment	"CODE"

;
; for ( i = 0; i < MAX_GLUE_COUNT; ++i ) {
;
	lda     #$00
	sta     _i
L0C6A:	lda     _i
	beq     L0C6C
;
; }
;
	rts
;
; gluePointer = &(glueData[i]);
;
L0C6C:	lda     _i
	jsr     pusha0
	lda     #$17
	jsr     tosmula0
	clc
	adc     #<(_glueData)
	tay
	txa
	adc     #>(_glueData)
	tax
	tya
	sta     _gluePointer
	stx     _gluePointer+1
;
; if ( gluePointer->isActive == 1 ) {
;
	sta     ptr1
	stx     ptr1+1
	ldy     #$03
	lda     (ptr1),y
	cmp     #$01
	jne     L0C6B
;
; if ( ( frameCount & 0x1F ) == 0x1F ) {
;
	lda     _frameCount
	and     #$1F
	cmp     #$1F
	bne     L076E
;
; gluePointer->frame ^= 1;
;
	lda     _gluePointer
	sta     ptr1
	lda     _gluePointer+1
	sta     ptr1+1
	iny
	lda     (ptr1),y
	eor     #$01
	sta     (ptr1),y
;
; flipSprite(gluePointer->spriteData, gluePointer->frame);
;
	lda     _gluePointer
	ldx     _gluePointer+1
	clc
	adc     #$06
	bcc     L0776
	inx
L0776:	jsr     pushax
	lda     _gluePointer
	sta     ptr1
	lda     _gluePointer+1
	sta     ptr1+1
	ldy     #$04
	lda     (ptr1),y
	jsr     _flipSprite
;
; if ( gluePointer->timeLeft < 60 ) {
;
L076E:	lda     _gluePointer
	sta     ptr1
	lda     _gluePointer+1
	sta     ptr1+1
	ldy     #$02
	lda     (ptr1),y
	cmp     #$3C
	bcs     L0778
;
; setSpriteFrame(gluePointer->spriteData, glueFrames[GLUE_FRAME_SMALL]);
;
	lda     _gluePointer
	ldx     _gluePointer+1
	clc
	adc     #$06
	bcc     L077C
	inx
L077C:	jsr     pushax
	lda     #<(_glueFrames+8)
	ldx     #>(_glueFrames+8)
;
; } else if ( gluePointer->timeLeft < 120 ) {
;
	jmp     L0C69
L0778:	lda     _gluePointer
	sta     ptr1
	lda     _gluePointer+1
	sta     ptr1+1
	lda     (ptr1),y
	cmp     #$78
	bcs     L0780
;
; setSpriteFrame(gluePointer->spriteData, glueFrames[GLUE_FRAME_MEDIUM]);
;
	lda     _gluePointer
	ldx     _gluePointer+1
	clc
	adc     #$06
	bcc     L0784
	inx
L0784:	jsr     pushax
	lda     #<(_glueFrames+4)
	ldx     #>(_glueFrames+4)
L0C69:	jsr     _setSpriteFrame
;
; oamSpriteIndex = oam_meta_spr(gluePointer->x, gluePointer->y, oamSpriteIndex, gluePointer->spriteData); 
;
L0780:	jsr     decsp3
	lda     _gluePointer
	sta     ptr1
	lda     _gluePointer+1
	sta     ptr1+1
	ldy     #$00
	lda     (ptr1),y
	ldy     #$02
	sta     (sp),y
	lda     _gluePointer
	sta     ptr1
	lda     _gluePointer+1
	sta     ptr1+1
	dey
	lda     (ptr1),y
	sta     (sp),y
	lda     _oamSpriteIndex
	dey
	sta     (sp),y
	lda     _gluePointer
	ldx     _gluePointer+1
	clc
	adc     #$06
	bcc     L078D
	inx
L078D:	jsr     _oam_meta_spr
	sta     _oamSpriteIndex
;
; for ( i = 0; i < MAX_GLUE_COUNT; ++i ) {
;
L0C6B:	inc     _i
	jmp     L0C6A

.endproc

; ---------------------------------------------------------------
; void __near__ updatePlatformSprites (void)
; ---------------------------------------------------------------

.segment	"CODE"

.proc	_updatePlatformSprites: near

.segment	"CODE"

;
; for ( i = 0; i < MAX_PLATFORM_COUNT; ++i ) {
;
	lda     #$00
	sta     _i
L0C6D:	lda     _i
	cmp     #$03
	bcs     L0790
;
; platformPointer = &(platformData[i]);
;
	ldx     #$00
	lda     _i
	jsr     aslax2
	clc
	adc     #<(_platformData)
	tay
	txa
	adc     #>(_platformData)
	tax
	tya
	sta     _platformPointer
	stx     _platformPointer+1
;
; if ( platformPointer->isActive == 1 ) {
;
	sta     ptr1
	stx     ptr1+1
	ldy     #$02
	lda     (ptr1),y
	cmp     #$01
	bne     L0C6E
;
; oamSpriteIndex = oam_meta_spr(platformPointer->x, platformPointer->y, oamSpriteIndex, platformSpriteDataTemplate); 
;
	jsr     decsp3
	lda     _platformPointer
	sta     ptr1
	lda     _platformPointer+1
	sta     ptr1+1
	ldy     #$00
	lda     (ptr1),y
	ldy     #$02
	sta     (sp),y
	lda     _platformPointer
	sta     ptr1
	lda     _platformPointer+1
	sta     ptr1+1
	dey
	lda     (ptr1),y
	sta     (sp),y
	lda     _oamSpriteIndex
	dey
	sta     (sp),y
	lda     #<(_platformSpriteDataTemplate)
	ldx     #>(_platformSpriteDataTemplate)
	jsr     _oam_meta_spr
	sta     _oamSpriteIndex
;
; for ( i = 0; i < MAX_PLATFORM_COUNT; ++i ) {
;
L0C6E:	inc     _i
	jmp     L0C6D
;
; }
;
L0790:	rts

.endproc

; ---------------------------------------------------------------
; void __near__ updatePlayerSprite (void)
; ---------------------------------------------------------------

.segment	"CODE"

.proc	_updatePlayerSprite: near

.segment	"CODE"

;
; if ( playerState == PLAYER_STATE_NORMAL ) {
;
	lda     _playerState
	bne     L0C77
;
; if ( ( pad & PAD_LEFT) || ( pad & PAD_RIGHT ) ) {
;
	lda     _pad
	and     #$40
	bne     L0C73
	lda     _pad
	and     #$80
	beq     L0C70
;
; if ( pad & PAD_RIGHT ) {
;
L0C73:	lda     _pad
	and     #$80
	beq     L0C74
;
; flipSprite(playerSpriteData, 1);
;
	lda     #<(_playerSpriteData)
	ldx     #>(_playerSpriteData)
	jsr     pushax
	lda     #$01
;
; } else if ( pad & PAD_LEFT ) {
;
	jmp     L0C6F
L0C74:	lda     _pad
	and     #$40
	beq     L0C75
;
; flipSprite(playerSpriteData, 0);
;
	lda     #<(_playerSpriteData)
	ldx     #>(_playerSpriteData)
	jsr     pushax
	lda     #$00
L0C6F:	jsr     _flipSprite
;
; if ( ( frameCount & PLAYER_WALK_ANIMATE_INTERVAL ) == PLAYER_WALK_ANIMATE_INTERVAL ) {
;
L0C75:	lda     _frameCount
	and     #$07
	cmp     #$07
	bne     L07BC
;
; playerFrame ^= 1;
;
	lda     _playerFrame
	eor     #$01
;
; playerFrame = PLAYER_FRAME_STANDING;
;
L0C70:	sta     _playerFrame
;
; setSpriteFrame(playerSpriteData, playerFrames[playerFrame]);
;
L07BC:	lda     #<(_playerSpriteData)
	ldx     #>(_playerSpriteData)
	jsr     pushax
	ldx     #$00
	lda     _playerFrame
	jsr     aslax2
	clc
	adc     #<(_playerFrames)
	tay
	txa
	adc     #>(_playerFrames)
	tax
	tya
;
; } else if ( playerState == PLAYER_STATE_JUMPING ) {
;
	jmp     L0C71
L0C77:	lda     _playerState
	cmp     #$03
	bne     L0C79
;
; if ( pad & PAD_RIGHT ) {
;
	lda     _pad
	and     #$80
	beq     L0C78
;
; flipSprite(playerSpriteData, 1);
;
	lda     #<(_playerSpriteData)
	ldx     #>(_playerSpriteData)
	jsr     pushax
	lda     #$01
;
; } else if ( pad & PAD_LEFT ) {
;
	jmp     L0C72
L0C78:	lda     _pad
	and     #$40
	beq     L07CC
;
; flipSprite(playerSpriteData, 0);
;
	lda     #<(_playerSpriteData)
	ldx     #>(_playerSpriteData)
	jsr     pushax
	lda     #$00
L0C72:	jsr     _flipSprite
;
; setSpriteFrame(playerSpriteData, playerFrames[PLAYER_FRAME_JUMPING]);
;
L07CC:	lda     #<(_playerSpriteData)
	ldx     #>(_playerSpriteData)
	jsr     pushax
	lda     #<(_playerFrames+12)
	ldx     #>(_playerFrames+12)
;
; } else if ( playerState == PLAYER_STATE_CLIMBING ) {
;
	jmp     L0C71
L0C79:	lda     _playerState
	cmp     #$02
	bne     L0C7A
;
; if ( ( frameCount & PLAYER_WALK_ANIMATE_INTERVAL ) == PLAYER_WALK_ANIMATE_INTERVAL ) {
;
	lda     _frameCount
	and     #$07
	cmp     #$07
	bne     L07D8
;
; playerFrame ^= 1;
;
	lda     _playerFrame
	eor     #$01
	sta     _playerFrame
;
; flipSprite(playerSpriteData, playerFrame);
;
	lda     #<(_playerSpriteData)
	ldx     #>(_playerSpriteData)
	jsr     pushax
	lda     _playerFrame
	jsr     _flipSprite
;
; setSpriteFrame(playerSpriteData, playerFrames[PLAYER_FRAME_CLIMBING]);
;
L07D8:	lda     #<(_playerSpriteData)
	ldx     #>(_playerSpriteData)
	jsr     pushax
	lda     #<(_playerFrames+8)
	ldx     #>(_playerFrames+8)
;
; } else if ( playerState == PLAYER_STATE_DEAD ) {
;
	jmp     L0C71
L0C7A:	lda     _playerState
	cmp     #$01
	bne     L07E6
;
; setSpriteFrame(playerSpriteData, playerFrames[PLAYER_FRAME_DEAD]);
;
	lda     #<(_playerSpriteData)
	ldx     #>(_playerSpriteData)
	jsr     pushax
	lda     #<(_playerFrames+16)
	ldx     #>(_playerFrames+16)
L0C71:	jsr     _setSpriteFrame
;
; oamSpriteIndex = oam_meta_spr(playerX, playerY, oamSpriteIndex, playerSpriteData); 
;
L07E6:	jsr     decsp3
	lda     _playerX
	ldy     #$02
	sta     (sp),y
	lda     _playerY
	dey
	sta     (sp),y
	lda     _oamSpriteIndex
	dey
	sta     (sp),y
	lda     #<(_playerSpriteData)
	ldx     #>(_playerSpriteData)
	jsr     _oam_meta_spr
	sta     _oamSpriteIndex
;
; }
;
	rts

.endproc

; ---------------------------------------------------------------
; void __near__ drawScoreboard (void)
; ---------------------------------------------------------------

.segment	"CODE"

.proc	_drawScoreboard: near

.segment	"CODE"

;
; vram_adr(NTADR_A(2, 3));
;
	ldx     #$20
	lda     #$62
	jsr     _vram_adr
;
; vram_put(0xDD);
;
	lda     #$DD
	jsr     _vram_put
;
; putStr(NTADR_A(3, 3), "000000");
;
	ldx     #$20
	lda     #$63
	jsr     pushax
	lda     #<(L0803)
	ldx     #>(L0803)
	jmp     _putStr

.endproc

; ---------------------------------------------------------------
; void __near__ updateScoreboard (void)
; ---------------------------------------------------------------

.segment	"CODE"

.proc	_updateScoreboard: near

.segment	"CODE"

;
; if ( !scoreChanged ) {
;
	lda     _scoreChanged
;
; return;
;
	bne     L0C7F
;
; }
;
	rts
;
; valueToConvert = playerScore;
;
L0C7F:	lda     _playerScore
	sta     _valueToConvert
	lda     _playerScore+1
	sta     _valueToConvert+1
;
; for ( i = 0; i < 4; ++i ) {
;
	lda     #$00
	sta     _i
L0C7C:	lda     _i
	cmp     #$04
	bcs     L0C7D
;
; digitsArray[i] = 0;
;
	ldy     _i
	lda     #$00
	sta     _digitsArray,y
;
; for ( i = 0; i < 4; ++i ) {
;
	inc     _i
	jmp     L0C7C
;
; decadeCount = 0;
;
L0C7D:	lda     #$00
	sta     _decadeCount
;
; while ( valueToConvert >= 1000 ) {
;
	jmp     L081A
;
; valueToConvert -= 1000;
;
L0818:	lda     _valueToConvert
	sec
	sbc     #$E8
	sta     _valueToConvert
	lda     _valueToConvert+1
	sbc     #$03
	sta     _valueToConvert+1
;
; ++decadeCount;
;
	inc     _decadeCount
;
; while ( valueToConvert >= 1000 ) {
;
L081A:	lda     _valueToConvert
	cmp     #$E8
	lda     _valueToConvert+1
	sbc     #$03
	bcs     L0818
;
; digitsArray[0] = decadeCount;
;
	lda     _decadeCount
	sta     _digitsArray
;
; decadeCount = 0;
;
	lda     #$00
	sta     _decadeCount
;
; while ( valueToConvert >= 100 ) {
;
	jmp     L0826
;
; valueToConvert -= 100;
;
L0824:	lda     _valueToConvert
	sec
	sbc     #$64
	sta     _valueToConvert
	bcs     L082A
	dec     _valueToConvert+1
;
; ++decadeCount;
;
L082A:	inc     _decadeCount
;
; while ( valueToConvert >= 100 ) {
;
L0826:	lda     _valueToConvert
	cmp     #$64
	lda     _valueToConvert+1
	sbc     #$00
	bcs     L0824
;
; digitsArray[1] = decadeCount;
;
	lda     _decadeCount
	sta     _digitsArray+1
;
; decadeCount = 0;
;
	lda     #$00
	sta     _decadeCount
;
; while ( valueToConvert >= 10 ) {
;
	jmp     L0833
;
; valueToConvert -= 10;
;
L0831:	lda     _valueToConvert
	sec
	sbc     #$0A
	sta     _valueToConvert
	bcs     L0837
	dec     _valueToConvert+1
;
; ++decadeCount;
;
L0837:	inc     _decadeCount
;
; while ( valueToConvert >= 10 ) {
;
L0833:	lda     _valueToConvert
	cmp     #$0A
	lda     _valueToConvert+1
	sbc     #$00
	bcs     L0831
;
; digitsArray[2] = decadeCount;
;
	lda     _decadeCount
	sta     _digitsArray+2
;
; digitsArray[3] = valueToConvert;
;
	lda     _valueToConvert
	sta     _digitsArray+3
;
; for ( i = 0; i < 4; ++i ) {
;
	lda     #$00
	sta     _i
L0C7E:	lda     _i
	cmp     #$04
	bcs     L0840
;
; scoreUpdateList[3 + i] = digitsArray[i] + 0xD0;
;
	ldx     #$00
	lda     _i
	clc
	adc     #$03
	bcc     L0C7B
	inx
	clc
L0C7B:	adc     #<(_scoreUpdateList)
	sta     ptr1
	txa
	adc     #>(_scoreUpdateList)
	sta     ptr1+1
	ldy     _i
	lda     _digitsArray,y
	clc
	adc     #$D0
	ldy     #$00
	sta     (ptr1),y
;
; for ( i = 0; i < 4; ++i ) {
;
	inc     _i
	jmp     L0C7E
;
; set_vram_update(scoreUpdateList);
;
L0840:	lda     #<(_scoreUpdateList)
	ldx     #>(_scoreUpdateList)
	jsr     _set_vram_update
;
; scoreChanged = 0;
;
	lda     #$00
	sta     _scoreChanged
;
; }
;
	rts

.endproc

; ---------------------------------------------------------------
; void __near__ __fastcall__ addScore (unsigned char)
; ---------------------------------------------------------------

.segment	"CODE"

.proc	_addScore: near

.segment	"CODE"

;
; void __fastcall__ addScore(u8 addValue) {
;
	jsr     pusha
;
; playerScore += addValue;
;
	ldy     #$00
	lda     (sp),y
	clc
	adc     _playerScore
	sta     _playerScore
	tya
	adc     _playerScore+1
	sta     _playerScore+1
;
; scoreChanged = 1;
;
	lda     #$01
	sta     _scoreChanged
;
; }
;
	jmp     incsp1

.endproc

; ---------------------------------------------------------------
; void __near__ __fastcall__ four_Sides (unsigned char, unsigned char)
; ---------------------------------------------------------------

.segment	"CODE"

.proc	_four_Sides: near

.segment	"CODE"

;
; void __fastcall__ four_Sides(u8 originX, u8 originY) {
;
	jsr     pusha
;
; leftSide = originX + 2;
;
	ldy     #$01
	lda     (sp),y
	clc
	adc     #$02
	sta     _leftSide
;
; rightSide = originX + 14;
;
	lda     (sp),y
	clc
	adc     #$0E
	sta     _rightSide
;
; topSide = originY + 4;
;
	dey
	lda     (sp),y
	clc
	adc     #$04
	sta     _topSide
;
; bottomSide = originY + 15;
;
	lda     (sp),y
	clc
	adc     #$0F
	sta     _bottomSide
;
; }
;
	jmp     incsp2

.endproc

; ---------------------------------------------------------------
; void __near__ __fastcall__ glueFourSides (unsigned char, unsigned char)
; ---------------------------------------------------------------

.segment	"CODE"

.proc	_glueFourSides: near

.segment	"CODE"

;
; void __fastcall__ glueFourSides(u8 originX, u8 originY) {
;
	jsr     pusha
;
; leftSide = originX + 6;
;
	ldy     #$01
	lda     (sp),y
	clc
	adc     #$06
	sta     _leftSide
;
; rightSide = originX + 9;
;
	lda     (sp),y
	clc
	adc     #$09
	sta     _rightSide
;
; topSide = originY + 6;
;
	dey
	lda     (sp),y
	clc
	adc     #$06
	sta     _topSide
;
; bottomSide = originY + 14;
;
	lda     (sp),y
	clc
	adc     #$0E
	sta     _bottomSide
;
; }
;
	jmp     incsp2

.endproc

; ---------------------------------------------------------------
; void __near__ __fastcall__ four_SidesSmall (unsigned char, unsigned char)
; ---------------------------------------------------------------

.segment	"CODE"

.proc	_four_SidesSmall: near

.segment	"CODE"

;
; void __fastcall__ four_SidesSmall(u8 originX, u8 originY) {
;
	jsr     pusha
;
; leftSide = originX + 1;
;
	ldy     #$01
	lda     (sp),y
	clc
	adc     #$01
	sta     _leftSide
;
; rightSide = originX + 7;
;
	lda     (sp),y
	clc
	adc     #$07
	sta     _rightSide
;
; topSide = originY;
;
	dey
	lda     (sp),y
	sta     _topSide
;
; bottomSide = originY + 7;
;
	lda     (sp),y
	clc
	adc     #$07
	sta     _bottomSide
;
; }
;
	jmp     incsp2

.endproc

; ---------------------------------------------------------------
; void __near__ __fastcall__ getCollisionIndex (unsigned char, unsigned char)
; ---------------------------------------------------------------

.segment	"CODE"

.proc	_getCollisionIndex: near

.segment	"CODE"

;
; void __fastcall__ getCollisionIndex(u8 screenX, u8 screenY) {
;
	jsr     pusha
;
; collisionIndex = ((screenX & 0xf0) >> 4) + (screenY & 0xf0);
;
	ldy     #$01
	lda     (sp),y
	ldx     #$00
	and     #$F0
	lsr     a
	lsr     a
	lsr     a
	lsr     a
	sta     ptr1
	lda     (sp,x)
	and     #$F0
	clc
	adc     ptr1
	bcc     L0C80
	inx
L0C80:	sta     _collisionIndex
	stx     _collisionIndex+1
;
; }
;
	jmp     incsp2

.endproc

; ---------------------------------------------------------------
; void __near__ __fastcall__ collideCheckVertical (unsigned char, unsigned char, unsigned char)
; ---------------------------------------------------------------

.segment	"CODE"

.proc	_collideCheckVertical: near

.segment	"CODE"

;
; void __fastcall__ collideCheckVertical(u8 originX, u8 originY, u8 direction) {
;
	jsr     pusha
;
; leftSide = originX + 2;
;
	ldy     #$02
	lda     (sp),y
	clc
	adc     #$02
	sta     _leftSide
;
; rightSide = originX + 14;
;
	lda     (sp),y
	clc
	adc     #$0E
	sta     _rightSide
;
; topSide = originY + 10;
;
	dey
	lda     (sp),y
	clc
	adc     #$0A
	sta     _topSide
;
; bottomSide = originY + 16;
;
	lda     (sp),y
	clc
	adc     #$10
	sta     _bottomSide
;
; collisionIndex = 0;
;
	lda     #$00
	sta     _collisionIndex
	sta     _collisionIndex+1
;
; if ( direction & PAD_UP ) {
;
	dey
	lda     (sp),y
	and     #$10
	beq     L0C83
;
; getCollisionIndex(rightSide - 4, topSide);
;
	lda     _rightSide
	sec
	sbc     #$04
	jsr     pusha
	lda     _topSide
	jsr     _getCollisionIndex
;
; if ( collisionMap[collisionIndex] != TILE_ALLCOLLIDE )  {
;
	lda     #<(_collisionMap)
	sta     ptr1
	lda     #>(_collisionMap)
	clc
	adc     _collisionIndex+1
	sta     ptr1+1
	ldy     _collisionIndex
	lda     (ptr1),y
	cmp     #$01
	beq     L089F
;
; getCollisionIndex(leftSide + 4, topSide);
;
	lda     _leftSide
	clc
	adc     #$04
	jsr     pusha
	lda     _topSide
;
; } else if ( direction & PAD_DOWN ) {
;
	jmp     L0C81
L0C83:	lda     (sp),y
	and     #$20
	beq     L089F
;
; getCollisionIndex(rightSide, bottomSide);
;
	lda     _rightSide
	jsr     pusha
	lda     _bottomSide
	jsr     _getCollisionIndex
;
; if ( collisionMap[collisionIndex] != TILE_ALLCOLLIDE ) {
;
	lda     #<(_collisionMap)
	sta     ptr1
	lda     #>(_collisionMap)
	clc
	adc     _collisionIndex+1
	sta     ptr1+1
	ldy     _collisionIndex
	lda     (ptr1),y
	cmp     #$01
	beq     L089F
;
; getCollisionIndex(leftSide, bottomSide);
;
	lda     _leftSide
	jsr     pusha
	lda     _bottomSide
L0C81:	jsr     _getCollisionIndex
;
; verticalCollideCheck = collisionMap[collisionIndex]; 
;
L089F:	lda     #<(_collisionMap)
	sta     ptr1
	lda     #>(_collisionMap)
	clc
	adc     _collisionIndex+1
	sta     ptr1+1
	ldy     _collisionIndex
	lda     (ptr1),y
	sta     _verticalCollideCheck
;
; }
;
	jmp     incsp3

.endproc

; ---------------------------------------------------------------
; void __near__ __fastcall__ collideCheckHorizontal (unsigned char, unsigned char, unsigned char)
; ---------------------------------------------------------------

.segment	"CODE"

.proc	_collideCheckHorizontal: near

.segment	"CODE"

;
; void __fastcall__ collideCheckHorizontal(u8 originX, u8 originY, u8 direction) {
;
	jsr     pusha
;
; leftSide = originX + 6;
;
	ldy     #$02
	lda     (sp),y
	clc
	adc     #$06
	sta     _leftSide
;
; rightSide = originX + 10;
;
	lda     (sp),y
	clc
	adc     #$0A
	sta     _rightSide
;
; topSide = originY + 10;
;
	dey
	lda     (sp),y
	clc
	adc     #$0A
	sta     _topSide
;
; bottomSide = originY + 16;
;
	lda     (sp),y
	clc
	adc     #$10
	sta     _bottomSide
;
; if ( direction & PAD_LEFT ) {
;
	dey
	lda     (sp),y
	and     #$40
	beq     L0C86
;
; getCollisionIndex(leftSide, topSide);
;
	lda     _leftSide
	jsr     pusha
	lda     _topSide
	jsr     _getCollisionIndex
;
; if ( collisionMap[collisionIndex] == TILE_NOCOLLIDE ) {
;
	lda     #<(_collisionMap)
	sta     ptr1
	lda     #>(_collisionMap)
	clc
	adc     _collisionIndex+1
	sta     ptr1+1
	ldy     _collisionIndex
	lda     (ptr1),y
	bne     L08C6
;
; getCollisionIndex(leftSide, bottomSide);
;
	lda     _leftSide
;
; } else if ( direction & PAD_RIGHT ) {
;
	jmp     L0C88
L0C86:	lda     (sp),y
	and     #$80
	beq     L08C6
;
; getCollisionIndex(rightSide, topSide);
;
	lda     _rightSide
	jsr     pusha
	lda     _topSide
	jsr     _getCollisionIndex
;
; if ( collisionMap[collisionIndex] == TILE_NOCOLLIDE ) {
;
	lda     #<(_collisionMap)
	sta     ptr1
	lda     #>(_collisionMap)
	clc
	adc     _collisionIndex+1
	sta     ptr1+1
	ldy     _collisionIndex
	lda     (ptr1),y
	bne     L08C6
;
; getCollisionIndex(rightSide, bottomSide);
;
	lda     _rightSide
L0C88:	jsr     pusha
	lda     _bottomSide
	jsr     _getCollisionIndex
;
; horizontalCollideCheck = collisionMap[collisionIndex];
;
L08C6:	lda     #<(_collisionMap)
	sta     ptr1
	lda     #>(_collisionMap)
	clc
	adc     _collisionIndex+1
	sta     ptr1+1
	ldy     _collisionIndex
	lda     (ptr1),y
	sta     _horizontalCollideCheck
;
; }
;
	jmp     incsp3

.endproc

; ---------------------------------------------------------------
; void __near__ __fastcall__ bgHorizCollideCheck (__near__ unsigned char *, __near__ unsigned char *, unsigned char)
; ---------------------------------------------------------------

.segment	"CODE"

.proc	_bgHorizCollideCheck: near

.segment	"CODE"

;
; void __fastcall__ bgHorizCollideCheck(u8 *x, u8 *y, u8 dir) {
;
	jsr     pusha
;
; collideCheckHorizontal(*x, *y, dir);
;
	jsr     decsp2
	ldy     #$06
	lda     (sp),y
	sta     ptr1+1
	dey
	lda     (sp),y
	sta     ptr1
	ldy     #$00
	lda     (ptr1),y
	iny
	sta     (sp),y
	ldy     #$04
	lda     (sp),y
	sta     ptr1+1
	dey
	lda     (sp),y
	sta     ptr1
	ldy     #$00
	lda     (ptr1),y
	sta     (sp),y
	ldy     #$02
	lda     (sp),y
	jsr     _collideCheckHorizontal
;
; if ( horizontalCollideCheck == TILE_ALLCOLLIDE ) {
;
	lda     _horizontalCollideCheck
	cmp     #$01
	bne     L08E3
;
; if ( dir & PAD_LEFT ) {
;
	ldy     #$00
	lda     (sp),y
	and     #$40
	beq     L0C8B
;
; *x = (*x & 0xf0) + 10;
;
	ldy     #$06
	jsr     pushwysp
	ldy     #$06
	lda     (sp),y
	sta     ptr1+1
	dey
	lda     (sp),y
	sta     ptr1
	ldy     #$00
	lda     (ptr1),y
	and     #$F0
	clc
	adc     #$0A
;
; } else if ( dir & PAD_RIGHT ) {
;
	jmp     L0C89
L0C8B:	lda     (sp),y
	and     #$80
	beq     L08E3
;
; *x = (*x & 0xf0) + 5;
;
	ldy     #$06
	jsr     pushwysp
	ldy     #$06
	lda     (sp),y
	sta     ptr1+1
	dey
	lda     (sp),y
	sta     ptr1
	ldy     #$00
	lda     (ptr1),y
	and     #$F0
	clc
	adc     #$05
L0C89:	jsr     staspidx
;
; }
;
L08E3:	jmp     incsp5

.endproc

; ---------------------------------------------------------------
; void __near__ checkPlayerLadderCollision (void)
; ---------------------------------------------------------------

.segment	"CODE"

.proc	_checkPlayerLadderCollision: near

.segment	"CODE"

;
; leftSide = playerX + 6;
;
	lda     _playerX
	clc
	adc     #$06
	sta     _leftSide
;
; rightSide = playerX + 10;
;
	lda     _playerX
	clc
	adc     #$0A
	sta     _rightSide
;
; bottomSide = playerY + 15;
;
	lda     _playerY
	clc
	adc     #$0F
	sta     _bottomSide
;
; getCollisionIndex(leftSide, bottomSide);
;
	lda     _leftSide
	jsr     pusha
	lda     _bottomSide
	jsr     _getCollisionIndex
;
; collisionLeft = collisionMap[collisionIndex];
;
	lda     #<(_collisionMap)
	sta     ptr1
	lda     #>(_collisionMap)
	clc
	adc     _collisionIndex+1
	sta     ptr1+1
	ldy     _collisionIndex
	lda     (ptr1),y
	sta     _collisionLeft
;
; getCollisionIndex(rightSide, bottomSide);
;
	lda     _rightSide
	jsr     pusha
	lda     _bottomSide
	jsr     _getCollisionIndex
;
; collisionRight = collisionMap[collisionIndex];
;
	lda     #<(_collisionMap)
	sta     ptr1
	lda     #>(_collisionMap)
	clc
	adc     _collisionIndex+1
	sta     ptr1+1
	ldy     _collisionIndex
	lda     (ptr1),y
	sta     _collisionRight
;
; ( ( collisionLeft == TILE_LADDER ) || ( collisionLeft == TILE_LADDER_TOP ) ) &&
;
	lda     _collisionLeft
	cmp     #$06
	beq     L0C8C
	cmp     #$07
	beq     L0C8C
	lda     #$00
	jmp     L0C97
;
; ( ( collisionRight == TILE_LADDER ) || ( collisionRight == TILE_LADDER_TOP ) ) 
;
L0C8C:	lda     _collisionRight
	cmp     #$06
	beq     L0C92
	cmp     #$07
	beq     L0C92
	lda     #$00
	jmp     L0C97
;
; playerState = PLAYER_STATE_CLIMBING;
;
L0C92:	lda     #$02
	sta     _playerState
;
; if ( ( collisionLeft == TILE_LADDER ) || ( collisionLeft == TILE_LADDER_TOP ) ) {
;
	lda     _collisionLeft
	cmp     #$06
	beq     L0C93
	cmp     #$07
	bne     L0C94
;
; playerX = ( playerX + 7 ) & 0xf0; 
;
L0C93:	lda     _playerX
	clc
	adc     #$07
	and     #$F0
	sta     _playerX
;
; } else if ( ( collisionRight == TILE_LADDER )  || ( collisionRight == TILE_LADDER_TOP ) ) {
;
	rts
L0C94:	lda     _collisionRight
	cmp     #$06
	beq     L0C95
	cmp     #$07
	bne     L0917
;
; playerX = ( playerX + 11 ) & 0xf0;
;
L0C95:	lda     _playerX
	clc
	adc     #$0B
	and     #$F0
	sta     _playerX
;
; } else {
;
L0917:	rts
;
; playerState = PLAYER_STATE_NORMAL;
;
L0C97:	sta     _playerState
;
; }
;
	rts

.endproc

; ---------------------------------------------------------------
; void __near__ killPlayer (void)
; ---------------------------------------------------------------

.segment	"CODE"

.proc	_killPlayer: near

.segment	"CODE"

;
; playerState = PLAYER_STATE_DEAD;
;
	lda     #$01
	sta     _playerState
;
; --playerLives;
;
	dec     _playerLives
;
; playerAnimationCounter = 0;
;
	lda     #$00
	sta     _playerAnimationCounter
;
; }
;
	rts

.endproc

; ---------------------------------------------------------------
; void __near__ playerEnemyCollideCheck (void)
; ---------------------------------------------------------------

.segment	"CODE"

.proc	_playerEnemyCollideCheck: near

.segment	"CODE"

;
; enemyIndex = 0;
;
	lda     #$00
	sta     _enemyIndex
;
; enemyColliding = 0;
;
	sta     _enemyColliding
;
; enemyCollidedIndex = 0;
;
	sta     _enemyCollidedIndex
;
; playerSittingOnEnemy = 0;
;
	sta     _playerSittingOnEnemy
;
; while ( !enemyColliding && ( enemyIndex < numEnemies ) ) {
;
	jmp     L0934
;
; currentEnemy = &(enemyData[enemyIndex]);
;
L0C9B:	lda     _enemyIndex
	jsr     mulax6
	clc
	adc     #<(_enemyData)
	tay
	txa
	adc     #>(_enemyData)
	tax
	tya
	sta     _currentEnemy
	stx     _currentEnemy+1
;
; enemyTop = currentEnemy->y + 3;
;
	sta     ptr1
	stx     ptr1+1
	ldy     #$01
	lda     (ptr1),y
	clc
	adc     #$03
	sta     _enemyTop
;
; enemyBottom = currentEnemy->y + 13;
;
	lda     _currentEnemy
	sta     ptr1
	lda     _currentEnemy+1
	sta     ptr1+1
	lda     (ptr1),y
	clc
	adc     #$0D
	sta     _enemyBottom
;
; enemyLeft = currentEnemy->x + 2;
;
	lda     _currentEnemy
	sta     ptr1
	lda     _currentEnemy+1
	sta     ptr1+1
	dey
	lda     (ptr1),y
	clc
	adc     #$02
	sta     _enemyLeft
;
; enemyRight = currentEnemy->x + 14;
;
	lda     _currentEnemy
	sta     ptr1
	lda     _currentEnemy+1
	sta     ptr1+1
	lda     (ptr1),y
	clc
	adc     #$0E
	sta     _enemyRight
;
; if ( !( rightSide  <  enemyLeft  || 
;
	lda     _rightSide
	cmp     _enemyLeft
	bcc     L0C9F
;
; leftSide   > enemyRight || 
;
	lda     _leftSide
	sec
	sbc     _enemyRight
	sta     tmp1
	lda     tmp1
	beq     L0C9C
	bcs     L0C9F
;
; bottomSide <  enemyTop   || 
;
L0C9C:	lda     _bottomSide
	cmp     _enemyTop
	bcc     L0C9F
;
; topSide    > enemyBottom ) ) {
;
	lda     _topSide
	sec
	sbc     _enemyBottom
	sta     tmp1
	lda     tmp1
	beq     L094C
	bcs     L0C9F
	tya
	jmp     L094C
L0C9F:	lda     #$01
L094C:	jsr     bnega
	jeq     L0CAC
;
; switch ( currentEnemy->state ) {
;
	lda     _currentEnemy
	sta     ptr1
	lda     _currentEnemy+1
	sta     ptr1+1
	ldy     #$04
	lda     (ptr1),y
;
; }
;
	beq     L0CA0
	cmp     #$01
	beq     L0CA1
	cmp     #$03
	jeq     L0CAC
	jmp     L0CAC
;
; enemyCollidedIndex = enemyIndex;
;
L0CA0:	lda     _enemyIndex
	sta     _enemyCollidedIndex
;
; killPlayer();
;
	jsr     _killPlayer
;
; break;
;
	jmp     L0CAC
;
; if ( ( bottomSide >= (enemyTop) ) && ( bottomSide <= ( enemyTop + 4 ) ) ) {
;
L0CA1:	lda     _bottomSide
	cmp     _enemyTop
	bcc     L0CA6
	jsr     pusha0
	lda     _enemyTop
	clc
	adc     #$04
	bcc     L095E
	ldx     #$01
L095E:	jsr     tosicmp
	bcc     L0958
	bne     L0CA6
;
; if ( !( pad & PAD_UP ) && ( playerVertVel < 0 ) ) {
;
L0958:	lda     _pad
	and     #$10
	bne     L0CAC
	lda     _playerVertVel
	asl     a
	bcc     L0CAC
;
; playerY = ( enemyTop - 15 );
;
	lda     _enemyTop
	sec
	sbc     #$0F
	sta     _playerY
;
; playerSittingOnEnemy = 1;
;
	lda     #$01
	sta     _playerSittingOnEnemy
;
; playerState = PLAYER_STATE_NORMAL;       
;
	lda     #$00
	sta     _playerState
;
; playerFrame = PLAYER_FRAME_STANDING;                         
;
	sta     _playerFrame
;
; } else if ( ( rightSide > enemyLeft ) && ( leftSide < enemyLeft ) && ( pad & PAD_RIGHT ) ) {
;
	jmp     L0CAC
L0CA6:	lda     _rightSide
	sec
	sbc     _enemyLeft
	bcc     L0CA9
	beq     L0CA9
	lda     _leftSide
	cmp     _enemyLeft
	bcs     L0CA9
	lda     _pad
	and     #$80
	beq     L0CA9
;
; playerX = ( enemyLeft - 13 );
;
	lda     _enemyLeft
	sec
	sbc     #$0D
;
; } else if ( ( leftSide < enemyRight ) && ( rightSide > enemyRight ) && ( pad & PAD_LEFT ) ) { 
;
	jmp     L0CAF
L0CA9:	lda     _leftSide
	cmp     _enemyRight
	bcs     L0CAC
	lda     _rightSide
	sec
	sbc     _enemyRight
	bcc     L0CAC
	beq     L0CAC
	lda     _pad
	and     #$40
	beq     L0CAC
;
; playerX = ( enemyRight - 3 );
;
	lda     _enemyRight
	sec
	sbc     #$03
L0CAF:	sta     _playerX
;
; ++enemyIndex;
;
L0CAC:	inc     _enemyIndex
;
; while ( !enemyColliding && ( enemyIndex < numEnemies ) ) {
;
L0934:	lda     _enemyColliding
	bne     L0CAD
	tax
	lda     _enemyIndex
	cmp     _numEnemies
	jcc     L0C9B
L0CAD:	rts

.endproc

; ---------------------------------------------------------------
; void __near__ genericEnemyCollideCheck (void)
; ---------------------------------------------------------------

.segment	"CODE"

.proc	_genericEnemyCollideCheck: near

.segment	"CODE"

;
; enemyIndex = 0;
;
	lda     #$00
	sta     _enemyIndex
;
; enemyColliding = 0;
;
	sta     _enemyColliding
;
; enemyCollidedIndex = 0;
;
	sta     _enemyCollidedIndex
;
; while ( !enemyColliding && ( enemyIndex < numEnemies ) ) {
;
	jmp     L0995
;
; currentEnemy = &(enemyData[enemyIndex]);
;
L0CB1:	lda     _enemyIndex
	jsr     mulax6
	clc
	adc     #<(_enemyData)
	tay
	txa
	adc     #>(_enemyData)
	tax
	tya
	sta     _currentEnemy
	stx     _currentEnemy+1
;
; enemyTop = currentEnemy->y + 2;
;
	sta     ptr1
	stx     ptr1+1
	ldy     #$01
	lda     (ptr1),y
	clc
	adc     #$02
	sta     _enemyTop
;
; enemyBottom = currentEnemy->y + 14;
;
	lda     _currentEnemy
	sta     ptr1
	lda     _currentEnemy+1
	sta     ptr1+1
	lda     (ptr1),y
	clc
	adc     #$0E
	sta     _enemyBottom
;
; enemyLeft = currentEnemy->x + 2;
;
	lda     _currentEnemy
	sta     ptr1
	lda     _currentEnemy+1
	sta     ptr1+1
	dey
	lda     (ptr1),y
	clc
	adc     #$02
	sta     _enemyLeft
;
; enemyRight = currentEnemy->x + 14;
;
	lda     _currentEnemy
	sta     ptr1
	lda     _currentEnemy+1
	sta     ptr1+1
	lda     (ptr1),y
	clc
	adc     #$0E
	sta     _enemyRight
;
; if ( !( rightSide  <  enemyLeft  || 
;
	lda     _rightSide
	cmp     _enemyLeft
	bcc     L0CB2
;
; leftSide   >= enemyRight || 
;
	lda     _leftSide
	cmp     _enemyRight
	bcs     L0CB2
;
; bottomSide <  enemyTop   || 
;
	lda     _bottomSide
	cmp     _enemyTop
	bcc     L0CB2
;
; topSide    >= enemyBottom ) ) {
;
	lda     _topSide
	cmp     _enemyBottom
	bcs     L0CB2
	tya
	jmp     L09AD
L0CB2:	lda     #$01
L09AD:	jsr     bnega
	beq     L0CB4
;
; switch ( currentEnemy->state ) {
;
	lda     _currentEnemy
	sta     ptr1
	lda     _currentEnemy+1
	sta     ptr1+1
	ldy     #$04
	lda     (ptr1),y
;
; }
;
	beq     L0CB3
	cmp     #$03
	beq     L0CB4
	jmp     L0CB4
;
; enemyColliding = 1;
;
L0CB3:	lda     #$01
	sta     _enemyColliding
;
; enemyCollidedIndex = enemyIndex;
;
	lda     _enemyIndex
	sta     _enemyCollidedIndex
;
; ++enemyIndex;
;
L0CB4:	inc     _enemyIndex
;
; while ( !enemyColliding && ( enemyIndex < numEnemies ) ) {
;
L0995:	lda     _enemyColliding
	bne     L0CB5
	tax
	lda     _enemyIndex
	cmp     _numEnemies
	jcc     L0CB1
L0CB5:	rts

.endproc

; ---------------------------------------------------------------
; void __near__ glueEnemyCollideCheck (void)
; ---------------------------------------------------------------

.segment	"CODE"

.proc	_glueEnemyCollideCheck: near

.segment	"CODE"

;
; for ( i = 0; i < MAX_GLUE_COUNT; ++i ) {
;
	lda     #$00
	sta     _i
L0CB7:	lda     _i
	beq     L0CB9
;
; }
;
	rts
;
; gluePointer = &(glueData[i]);
;
L0CB9:	lda     _i
	jsr     pusha0
	lda     #$17
	jsr     tosmula0
	clc
	adc     #<(_glueData)
	tay
	txa
	adc     #>(_glueData)
	tax
	tya
	sta     _gluePointer
	stx     _gluePointer+1
;
; if ( gluePointer->isActive ) {
;
	sta     ptr1
	stx     ptr1+1
	ldy     #$03
	lda     (ptr1),y
	jeq     L0CB8
;
; glueFourSides(gluePointer->x, gluePointer->y);
;
	lda     _gluePointer
	sta     ptr1
	lda     _gluePointer+1
	sta     ptr1+1
	ldy     #$00
	lda     (ptr1),y
	jsr     pusha
	lda     _gluePointer
	sta     ptr1
	lda     _gluePointer+1
	sta     ptr1+1
	ldy     #$01
	lda     (ptr1),y
	jsr     _glueFourSides
;
; genericEnemyCollideCheck();
;
	jsr     _genericEnemyCollideCheck
;
; if ( enemyColliding ) {
;
	lda     _enemyColliding
	beq     L0CB8
;
; gluePointer->isActive = 0;
;
	lda     _gluePointer
	sta     ptr1
	lda     _gluePointer+1
	sta     ptr1+1
	lda     #$00
	ldy     #$03
	sta     (ptr1),y
;
; gluePointer->x = 0;
;
	lda     _gluePointer
	sta     ptr1
	lda     _gluePointer+1
	sta     ptr1+1
	lda     #$00
	tay
	sta     (ptr1),y
;
; gluePointer->y = 0;
;
	lda     _gluePointer
	sta     ptr1
	lda     _gluePointer+1
	sta     ptr1+1
	tya
	iny
	sta     (ptr1),y
;
; currentEnemy = &(enemyData[enemyCollidedIndex]);
;
	tax
	lda     _enemyCollidedIndex
	jsr     mulax6
	clc
	adc     #<(_enemyData)
	tay
	txa
	adc     #>(_enemyData)
	tax
	tya
	sta     _currentEnemy
	stx     _currentEnemy+1
;
; currentEnemy->state = ENEMY_STATE_GLUED;
;
	sta     ptr1
	stx     ptr1+1
	lda     #$01
	ldy     #$04
	sta     (ptr1),y
;
; currentEnemy->glueTimeLeft = GLUE_INIT_DURATION;
;
	lda     _currentEnemy
	sta     ptr1
	lda     _currentEnemy+1
	sta     ptr1+1
	lda     #$FF
	iny
	sta     (ptr1),y
;
; sfx_play(SFX_GLUESTUCK, CHANNEL_SQUARE1);
;
	lda     #$03
	jsr     pusha
	lda     #$00
	jsr     _sfx_play
;
; for ( i = 0; i < MAX_GLUE_COUNT; ++i ) {
;
L0CB8:	inc     _i
	jmp     L0CB7

.endproc

; ---------------------------------------------------------------
; void __near__ glueCollideCheck (void)
; ---------------------------------------------------------------

.segment	"CODE"

.proc	_glueCollideCheck: near

.segment	"CODE"

;
; glueIndex = 0;
;
	lda     #$00
	sta     _glueIndex
;
; glueColliding = 0;
;
	sta     _glueColliding
;
; glueCollidedIndex = 0;
;
	sta     _glueCollidedIndex
;
; while ( !glueColliding && ( glueIndex < MAX_GLUE_COUNT ) ) {
;
	jmp     L09E9
;
; gluePointer = &(glueData[glueIndex]);
;
L0CBB:	lda     _glueIndex
	jsr     pushax
	lda     #$17
	jsr     tosmulax
	clc
	adc     #<(_glueData)
	tay
	txa
	adc     #>(_glueData)
	tax
	tya
	sta     _gluePointer
	stx     _gluePointer+1
;
; if ( gluePointer->isActive ) {
;
	sta     ptr1
	stx     ptr1+1
	ldy     #$03
	lda     (ptr1),y
	jeq     L0CBD
;
; glueTop = gluePointer->y + 2;
;
	lda     _gluePointer
	sta     ptr1
	lda     _gluePointer+1
	sta     ptr1+1
	ldy     #$01
	lda     (ptr1),y
	clc
	adc     #$02
	sta     _glueTop
;
; glueBottom = gluePointer->y + 14;
;
	lda     _gluePointer
	sta     ptr1
	lda     _gluePointer+1
	sta     ptr1+1
	lda     (ptr1),y
	clc
	adc     #$0E
	sta     _glueBottom
;
; glueLeft = gluePointer->x + 2;
;
	lda     _gluePointer
	sta     ptr1
	lda     _gluePointer+1
	sta     ptr1+1
	dey
	lda     (ptr1),y
	clc
	adc     #$02
	sta     _glueLeft
;
; glueRight = gluePointer->x + 14;
;
	lda     _gluePointer
	sta     ptr1
	lda     _gluePointer+1
	sta     ptr1+1
	lda     (ptr1),y
	clc
	adc     #$0E
	sta     _glueRight
;
; if ( !( rightSide  <  glueLeft  || 
;
	lda     _rightSide
	cmp     _glueLeft
	bcc     L0CBC
;
; leftSide   >= glueRight || 
;
	lda     _leftSide
	cmp     _glueRight
	bcs     L0CBC
;
; bottomSide <  glueTop   || 
;
	lda     _bottomSide
	cmp     _glueTop
	bcc     L0CBC
;
; topSide    >= glueBottom ) ) {
;
	lda     _topSide
	cmp     _glueBottom
	bcs     L0CBC
	tya
	jmp     L0A03
L0CBC:	lda     #$01
L0A03:	jsr     bnega
	beq     L0CBD
;
; glueColliding = 1;
;
	lda     #$01
	sta     _glueColliding
;
; glueCollidedIndex = glueIndex;    
;
	lda     _glueIndex
	sta     _glueCollidedIndex
;
; ++glueIndex;
;
L0CBD:	inc     _glueIndex
;
; while ( !glueColliding && ( glueIndex < MAX_GLUE_COUNT ) ) {
;
L09E9:	lda     _glueColliding
	bne     L0CBE
	tax
	lda     _glueIndex
	jeq     L0CBB
L0CBE:	rts

.endproc

; ---------------------------------------------------------------
; void __near__ updateEnemyMovement (void)
; ---------------------------------------------------------------

.segment	"CODE"

.proc	_updateEnemyMovement: near

.segment	"CODE"

;
; for ( i = 0; i < numEnemies; i++ ) {
;
	lda     #$00
	sta     _i
	tax
L0CC1:	lda     _i
	cmp     _numEnemies
	bcc     L0CCB
;
; }
;
	rts
;
; currentEnemy = &(enemyData[i]);
;
L0CCB:	jsr     mulax6
	clc
	adc     #<(_enemyData)
	tay
	txa
	adc     #>(_enemyData)
	tax
	tya
	sta     _currentEnemy
	stx     _currentEnemy+1
;
; if ( currentEnemy->state == ENEMY_STATE_GLUED ) {
;
	sta     ptr1
	stx     ptr1+1
	ldy     #$04
	lda     (ptr1),y
	cmp     #$01
	bne     L0A16
;
; --(currentEnemy->glueTimeLeft);
;
	lda     _currentEnemy
	sta     ptr1
	lda     _currentEnemy+1
	sta     ptr1+1
	iny
	lda     (ptr1),y
	sec
	sbc     #$01
	sta     (ptr1),y
;
; if ( currentEnemy->glueTimeLeft <= 0 ) {
;
	lda     _currentEnemy
	sta     ptr1
	lda     _currentEnemy+1
	sta     ptr1+1
	ldx     #$00
	lda     (ptr1),y
	jne     L0CCA
;
; currentEnemy->state = ENEMY_STATE_NORMAL;
;
	lda     _currentEnemy
	sta     ptr1
	lda     _currentEnemy+1
	sta     ptr1+1
	txa
	dey
;
; continue;
;
	jmp     L0CC0
;
; collideCheckVertical(currentEnemy->x, currentEnemy->y + 1, PAD_DOWN);
;
L0A16:	jsr     decsp2
	lda     _currentEnemy
	sta     ptr1
	lda     _currentEnemy+1
	sta     ptr1+1
	ldy     #$00
	lda     (ptr1),y
	iny
	sta     (sp),y
	lda     _currentEnemy
	sta     ptr1
	lda     _currentEnemy+1
	sta     ptr1+1
	lda     (ptr1),y
	clc
	adc     #$01
	dey
	sta     (sp),y
	lda     #$20
	jsr     _collideCheckVertical
;
; if ( ( verticalCollideCheck != TILE_ALLCOLLIDE ) && ( verticalCollideCheck != TILE_LADDER_TOP ) ) {
;
	lda     _verticalCollideCheck
	cmp     #$01
	beq     L0A23
	cmp     #$07
	beq     L0A23
;
; currentEnemy->y += 1;
;
	lda     _currentEnemy
	sta     ptr1
	lda     _currentEnemy+1
	sta     ptr1+1
	ldy     #$01
	lda     (ptr1),y
	clc
	adc     #$01
;
; } else {
;
	jmp     L0CC0
;
; if ( currentEnemy->direction == PAD_RIGHT ) {
;
L0A23:	lda     _currentEnemy
	sta     ptr1
	lda     _currentEnemy+1
	sta     ptr1+1
	ldy     #$03
	lda     (ptr1),y
	cmp     #$80
	bne     L0A2C
;
; currentEnemy->x += 1;
;
	lda     _currentEnemy
	sta     ptr1
	lda     _currentEnemy+1
	sta     ptr1+1
	ldy     #$00
	lda     (ptr1),y
	clc
	adc     #$01
	sta     (ptr1),y
;
; collideCheckHorizontal(currentEnemy->x, currentEnemy->y, PAD_RIGHT);
;
	jsr     decsp2
	lda     _currentEnemy
	sta     ptr1
	lda     _currentEnemy+1
	sta     ptr1+1
	lda     (ptr1),y
	iny
	sta     (sp),y
	lda     _currentEnemy
	sta     ptr1
	lda     _currentEnemy+1
	sta     ptr1+1
	lda     (ptr1),y
	dey
	sta     (sp),y
	lda     #$80
	jsr     _collideCheckHorizontal
;
; if ( ( horizontalCollideCheck == TILE_ALLCOLLIDE ) || ( horizontalCollideCheck == TILE_ENEMYCOLLIDE ) ) {
;
	ldx     #$00
	lda     _horizontalCollideCheck
	cmp     #$01
	beq     L0CC6
	cmp     #$02
	jne     L0CCA
;
; flipSprite(enemySpriteData[i], 0);
;
L0CC6:	lda     _i
	jsr     pusha0
	lda     #$11
	jsr     tosmula0
	clc
	adc     #<(_enemySpriteData)
	tay
	txa
	adc     #>(_enemySpriteData)
	tax
	tya
	jsr     pushax
	lda     #$00
	jsr     _flipSprite
;
; currentEnemy->direction = PAD_LEFT;
;
	lda     _currentEnemy
	sta     ptr1
	lda     _currentEnemy+1
	sta     ptr1+1
	ldx     #$00
	lda     #$40
	ldy     #$03
	sta     (ptr1),y
;
; } else {
;
	jmp     L0CCA
;
; currentEnemy->x -= 1;
;
L0A2C:	lda     _currentEnemy
	sta     ptr1
	lda     _currentEnemy+1
	sta     ptr1+1
	ldy     #$00
	lda     (ptr1),y
	sec
	sbc     #$01
	sta     (ptr1),y
;
; collideCheckHorizontal(currentEnemy->x, currentEnemy->y, PAD_LEFT);
;
	jsr     decsp2
	lda     _currentEnemy
	sta     ptr1
	lda     _currentEnemy+1
	sta     ptr1+1
	lda     (ptr1),y
	iny
	sta     (sp),y
	lda     _currentEnemy
	sta     ptr1
	lda     _currentEnemy+1
	sta     ptr1+1
	lda     (ptr1),y
	dey
	sta     (sp),y
	lda     #$40
	jsr     _collideCheckHorizontal
;
; if ( ( horizontalCollideCheck == TILE_ALLCOLLIDE ) || ( horizontalCollideCheck == TILE_ENEMYCOLLIDE ) ) {
;
	ldx     #$00
	lda     _horizontalCollideCheck
	cmp     #$01
	beq     L0CC9
	cmp     #$02
	bne     L0CCA
;
; flipSprite(enemySpriteData[i], 1);
;
L0CC9:	lda     _i
	jsr     pusha0
	lda     #$11
	jsr     tosmula0
	clc
	adc     #<(_enemySpriteData)
	tay
	txa
	adc     #>(_enemySpriteData)
	tax
	tya
	jsr     pushax
	lda     #$01
	jsr     _flipSprite
;
; currentEnemy->direction = PAD_RIGHT;
;
	lda     _currentEnemy
	sta     ptr1
	lda     _currentEnemy+1
	sta     ptr1+1
	lda     #$80
	ldy     #$03
L0CC0:	sta     (ptr1),y
;
; for ( i = 0; i < numEnemies; i++ ) {
;
	ldx     #$00
L0CCA:	lda     _i
	clc
	adc     #$01
	sta     _i
	jmp     L0CC1

.endproc

; ---------------------------------------------------------------
; void __near__ checkPlayerGetItems (void)
; ---------------------------------------------------------------

.segment	"CODE"

.proc	_checkPlayerGetItems: near

.segment	"CODE"

;
; getCollisionIndex(playerX + 8, playerY + 8);
;
	lda     _playerX
	clc
	adc     #$08
	jsr     pusha
	lda     _playerY
	clc
	adc     #$08
	jsr     _getCollisionIndex
;
; if ( collisionMap[collisionIndex] == TILE_FRUIT ) {
;
	lda     #<(_collisionMap)
	sta     ptr1
	lda     #>(_collisionMap)
	clc
	adc     _collisionIndex+1
	sta     ptr1+1
	ldy     _collisionIndex
	lda     (ptr1),y
	cmp     #$08
	bne     L0A57
;
; addScore(SCORE_VALUE_FRUIT);
;
	jsr     _addScore
;
; collisionMap[collisionIndex] = TILE_NOCOLLIDE;
;
	lda     #<(_collisionMap)
	clc
	adc     _collisionIndex
	sta     ptr1
	lda     #>(_collisionMap)
	adc     _collisionIndex+1
	sta     ptr1+1
	lda     #$00
	tay
	sta     (ptr1),y
;
; updateMapTile((((playerX + 8) & 0xf0) >> 3), (((playerY + 8) & 0xf0) >> 3), emptyFrame);
;
	jsr     decsp2
	lda     _playerX
	clc
	adc     #$08
	and     #$F0
	lsr     a
	lsr     a
	lsr     a
	iny
	sta     (sp),y
	lda     _playerY
	clc
	adc     #$08
	and     #$F0
	lsr     a
	lsr     a
	lsr     a
	dey
	sta     (sp),y
	lda     #<(_emptyFrame)
	ldx     #>(_emptyFrame)
	jsr     _updateMapTile
;
; sfx_play(SFX_BEEP, CHANNEL_SQUARE1);
;
	lda     #$02
	jsr     pusha
	lda     #$00
	jmp     _sfx_play
;
; } else if ( collisionMap[collisionIndex] == TILE_JEWEL ) {
;
L0A57:	lda     #<(_collisionMap)
	sta     ptr1
	lda     #>(_collisionMap)
	clc
	adc     _collisionIndex+1
	sta     ptr1+1
	ldy     _collisionIndex
	lda     (ptr1),y
	cmp     #$0C
	bne     L0A6F
;
; addScore(SCORE_VALUE_JEWEL);
;
	lda     #$14
	jsr     _addScore
;
; collisionMap[collisionIndex] = TILE_NOCOLLIDE;
;
	lda     #<(_collisionMap)
	clc
	adc     _collisionIndex
	sta     ptr1
	lda     #>(_collisionMap)
	adc     _collisionIndex+1
	sta     ptr1+1
	lda     #$00
	tay
	sta     (ptr1),y
;
; updateMapTile((((playerX + 8) & 0xf0) >> 3), (((playerY + 8) & 0xf0) >> 3), emptyFrame);  
;
	jsr     decsp2
	lda     _playerX
	clc
	adc     #$08
	and     #$F0
	lsr     a
	lsr     a
	lsr     a
	iny
	sta     (sp),y
	lda     _playerY
	clc
	adc     #$08
	and     #$F0
	lsr     a
	lsr     a
	lsr     a
	dey
	sta     (sp),y
	lda     #<(_emptyFrame)
	ldx     #>(_emptyFrame)
	jsr     _updateMapTile
;
; sfx_play(SFX_BEEP, CHANNEL_SQUARE1);
;
	lda     #$02
	jsr     pusha
	lda     #$00
	jsr     _sfx_play
;
; delay(180);
;
	lda     #$B4
	jsr     _delay
;
; levelComplete = 1;
;
	lda     #$01
	sta     _levelComplete
;
; } else if ( collisionMap[collisionIndex] == TILE_WATER ) {
;
	rts
L0A6F:	lda     #<(_collisionMap)
	sta     ptr1
	lda     #>(_collisionMap)
	clc
	adc     _collisionIndex+1
	sta     ptr1+1
	ldy     _collisionIndex
	lda     (ptr1),y
	cmp     #$0B
;
; killPlayer();  
;
	jeq     _killPlayer
;
; }
;
	rts

.endproc

; ---------------------------------------------------------------
; void __near__ updatePlayerJumpFall (void)
; ---------------------------------------------------------------

.segment	"CODE"

.proc	_updatePlayerJumpFall: near

.segment	"CODE"

;
; collideBottom = 0;
;
	lda     #$00
	sta     _collideBottom
;
; if ( playerState == PLAYER_STATE_JUMPING ) {
;
	lda     _playerState
	cmp     #$03
	jne     L0CDB
;
; playerY -= playerVertVel;
;
	lda     _playerVertVel
	eor     #$FF
	sec
	adc     _playerY
	sta     _playerY
;
; if ( playerVertVel > 0 ) {
;
	lda     _playerVertVel
	sec
	sbc     #$01
	bvs     L0A9A
	eor     #$80
L0A9A:	bpl     L0A97
;
; collideCheckVertical(playerX, playerY, PAD_UP);
;
	jsr     decsp2
	lda     _playerX
	ldy     #$01
	sta     (sp),y
	lda     _playerY
	dey
	sta     (sp),y
	lda     #$10
	jsr     _collideCheckVertical
;
; if ( ( verticalCollideCheck == TILE_ALLCOLLIDE ) || ( verticalCollideCheck == TILE_LADDER_TOP ) ) { 
;
	lda     _verticalCollideCheck
	cmp     #$01
	beq     L0CD1
	cmp     #$07
	bne     L0CD5
;
; playerY = (playerY & 0xF0) + 6;
;
L0CD1:	lda     _playerY
	and     #$F0
	clc
	adc     #$06
	sta     _playerY
;
; } else {
;
	jmp     L0CD5
;
; collideCheckVertical(playerX, playerY + 2, PAD_DOWN);
;
L0A97:	jsr     decsp2
	lda     _playerX
	ldy     #$01
	sta     (sp),y
	lda     _playerY
	clc
	adc     #$02
	dey
	sta     (sp),y
	lda     #$20
	jsr     _collideCheckVertical
;
; if ( ( verticalCollideCheck == TILE_ALLCOLLIDE ) || ( verticalCollideCheck == TILE_LADDER_TOP ) ) { 
;
	lda     _verticalCollideCheck
	cmp     #$01
	beq     L0CD4
	cmp     #$07
	bne     L0CD5
;
; playerY =  ( ( playerY + 8 ) & 0xF0 ) - 1;
;
L0CD4:	lda     _playerY
	clc
	adc     #$08
	and     #$F0
	sec
	sbc     #$01
	sta     _playerY
;
; collideBottom = 1;
;
	lda     #$01
	sta     _collideBottom
;
; playerState = PLAYER_STATE_NORMAL;       
;
	lda     #$00
	sta     _playerState
;
; playerFrame = PLAYER_FRAME_STANDING;
;
	sta     _playerFrame
;
; if ( ( playerVertVel > MAX_PLAYER_VERT_VEL ) && ( playerJumpCounter == PLAYER_JUMP_COUNTER_INTERVAL ) ) {
;
L0CD5:	lda     _playerVertVel
	sec
	sbc     #$FE
	bvs     L0AC3
	eor     #$80
L0AC3:	bpl     L0CDA
	lda     _playerJumpCounter
	cmp     #$06
	bne     L0CDA
;
; playerVertVel -= GRAVITY_ACCELERATION; 
;
	lda     _playerVertVel
	sec
	sbc     #$02
	sta     _playerVertVel
;
; playerJumpCounter = 0;
;
	lda     #$00
	sta     _playerJumpCounter
;
; ++playerJumpCounter;
;
L0CDA:	inc     _playerJumpCounter
;
; } else if ( ( playerState == PLAYER_STATE_NORMAL ) || ( playerState == PLAYER_STATE_FALLING ) ) {
;
	jmp     L0AE7
L0CDB:	lda     _playerState
	beq     L0CDC
	cmp     #$04
	bne     L0AE7
;
; collideCheckVertical(playerX, playerY + 2, PAD_DOWN);
;
L0CDC:	jsr     decsp2
	lda     _playerX
	ldy     #$01
	sta     (sp),y
	lda     _playerY
	clc
	adc     #$02
	dey
	sta     (sp),y
	lda     #$20
	jsr     _collideCheckVertical
;
; if ( ( verticalCollideCheck == TILE_ALLCOLLIDE ) || ( verticalCollideCheck == TILE_LADDER_TOP ) ) { 
;
	lda     _verticalCollideCheck
	cmp     #$01
	beq     L0CDF
	cmp     #$07
	bne     L0CE0
;
; playerY = ((playerY + 8) & 0xF0) - 1;
;
L0CDF:	lda     _playerY
	clc
	adc     #$08
	and     #$F0
	sec
	sbc     #$01
	sta     _playerY
;
; collideBottom = 1;
;
	lda     #$01
	sta     _collideBottom
;
; playerState = PLAYER_STATE_NORMAL;   
;
	lda     #$00
;
; } else {
;
	jmp     L0CCC
;
; playerY += PLAYER_FALL_SPEED;
;
L0CE0:	lda     #$03
	clc
	adc     _playerY
	sta     _playerY
;
; collideBottom = 0;
;
	lda     #$00
	sta     _collideBottom
;
; playerState = PLAYER_STATE_FALLING;
;
	lda     #$04
L0CCC:	sta     _playerState
;
; if ( collideBottom || playerSittingOnEnemy ) {
;
L0AE7:	lda     _collideBottom
	bne     L0CE1
	lda     _playerSittingOnEnemy
	bne     L0CE1
	rts
;
; if ( ( jumpButtonReset != 0 ) && ( pad & PAD_A ) ) {
;
L0CE1:	lda     _jumpButtonReset
	beq     L0CE5
	lda     _pad
	and     #$01
	beq     L0CE5
;
; playerVertVel = PLAYER_INIT_JUMP_VEL;
;
	lda     #$03
	sta     _playerVertVel
;
; playerState = PLAYER_STATE_JUMPING;
;
	sta     _playerState
;
; playerJumpCounter = 0;
;
	lda     #$00
	sta     _playerJumpCounter
;
; jumpButtonReset = 0;
;
	sta     _jumpButtonReset
;
; sfx_play(SFX_JUMP, CHANNEL_SQUARE1);
;
	jsr     pusha
	jmp     _sfx_play
;
; } else if ( pad & PAD_UP ) {
;
L0CE5:	lda     _pad
	and     #$10
	cmp     #$00
;
; checkPlayerLadderCollision();
;
	jne     _checkPlayerLadderCollision
;
; } else if ( ( pad & PAD_DOWN ) && ( verticalCollideCheck == TILE_LADDER_TOP ) ) {
;
	lda     _pad
	and     #$20
	beq     L0CE8
	lda     _verticalCollideCheck
	cmp     #$07
	beq     L0CE9
L0CE8:	rts
;
; playerY += 2;
;
L0CE9:	lda     #$02
	clc
	adc     _playerY
	sta     _playerY
;
; checkPlayerLadderCollision();
;
	jmp     _checkPlayerLadderCollision

.endproc

; ---------------------------------------------------------------
; void __near__ updatePlayerClimbing (void)
; ---------------------------------------------------------------

.segment	"CODE"

.proc	_updatePlayerClimbing: near

.segment	"CODE"

;
; checkPlayerLadderCollision();
;
	jsr     _checkPlayerLadderCollision
;
; if ( pad & PAD_UP ) { 
;
	lda     _pad
	and     #$10
	beq     L0CEA
;
; --playerY;
;
	dec     _playerY
;
; } else if ( pad & PAD_DOWN ) {
;
	rts
L0CEA:	lda     _pad
	and     #$20
	beq     L0B1E
;
; ++playerY;
;
	inc     _playerY
;
; collideCheckVertical(playerX, playerY + 1, PAD_DOWN);
;
	jsr     decsp2
	lda     _playerX
	ldy     #$01
	sta     (sp),y
	lda     _playerY
	clc
	adc     #$01
	dey
	sta     (sp),y
	lda     #$20
	jsr     _collideCheckVertical
;
; if ( ( verticalCollideCheck == TILE_ALLCOLLIDE ) ) {  
;
	lda     _verticalCollideCheck
	cmp     #$01
	bne     L0B1E
;
; playerState = PLAYER_STATE_NORMAL;
;
	lda     #$00
	sta     _playerState
;
; }
;
L0B1E:	rts

.endproc

; ---------------------------------------------------------------
; void __near__ updatePlayerVerticalMovement (void)
; ---------------------------------------------------------------

.segment	"CODE"

.proc	_updatePlayerVerticalMovement: near

.segment	"CODE"

;
; if ( !( pad & PAD_A ) ) {
;
	lda     _pad
	and     #$01
	bne     L0CEB
;
; jumpButtonReset = 1;
;
	lda     #$01
	sta     _jumpButtonReset
;
; if ( playerState == PLAYER_STATE_CLIMBING ) {
;
L0CEB:	lda     _playerState
	cmp     #$02
;
; updatePlayerClimbing(); 
;
	jeq     _updatePlayerClimbing
;
; updatePlayerJumpFall();
;
	jmp     _updatePlayerJumpFall

.endproc

; ---------------------------------------------------------------
; void __near__ updatePlayerHorizontalMovement (void)
; ---------------------------------------------------------------

.segment	"CODE"

.proc	_updatePlayerHorizontalMovement: near

.segment	"CODE"

;
; if ( ( playerState != PLAYER_STATE_NORMAL ) && ( playerState != PLAYER_STATE_JUMPING ) ) {
;
	lda     _playerState
	beq     L0CF0
	cmp     #$03
	beq     L0CF0
;
; return;
;
	rts
;
; if ( pad & PAD_LEFT ) {
;
L0CF0:	lda     _pad
	and     #$40
	beq     L0CF1
;
; playerDir = PAD_LEFT;
;
	lda     #$40
	sta     _playerDir
;
; if ( playerX > 0 ) {
;
	lda     _playerX
	beq     L0CF3
;
; playerX -= PLAYER_MOVE_VEL;
;
	dec     _playerX
;
; } else if ( pad & PAD_RIGHT ) {
;
	jmp     L0CF2
L0CF1:	lda     _pad
	and     #$80
	beq     L0CF3
;
; playerDir = PAD_RIGHT;
;
	lda     #$80
	sta     _playerDir
;
; if ( playerX < 240 ) {
;
	lda     _playerX
	cmp     #$F0
	bcs     L0CF2
;
; playerX += PLAYER_MOVE_VEL;
;
	inc     _playerX
;
; horizontalCollideCheck = TILE_NOCOLLIDE;
;
L0CF2:	lda     #$00
L0CF3:	sta     _horizontalCollideCheck
;
; bgHorizCollideCheck(&playerX, &playerY, pad);
;
	jsr     decsp4
	lda     #<(_playerX)
	ldy     #$02
	sta     (sp),y
	iny
	lda     #>(_playerX)
	sta     (sp),y
	lda     #<(_playerY)
	ldy     #$00
	sta     (sp),y
	iny
	lda     #>(_playerY)
	sta     (sp),y
	lda     _pad
	jmp     _bgHorizCollideCheck

.endproc

; ---------------------------------------------------------------
; void __near__ updatePlayerGlue (void)
; ---------------------------------------------------------------

.segment	"CODE"

.proc	_updatePlayerGlue: near

.segment	"CODE"

;
; u8 newGlueIndex = 255;
;
	jsr     decsp2
	lda     #$FF
	jsr     pusha
;
; u8 duplicateFound = 0;
;
	lda     #$00
	jsr     pusha
;
; if ( ! ( pad & PAD_B ) ) {
;
	lda     _pad
	and     #$02
	bne     L0CF8
;
; glueButtonReset = 1;
;
	lda     #$01
	sta     _glueButtonReset
;
; if ( ( pad & PAD_B ) && ( glueButtonReset == 1 ) ) {
;
L0CF8:	lda     _pad
	and     #$02
	bne     L0D08
;
; }
;
	jmp     incsp4
;
; if ( ( pad & PAD_B ) && ( glueButtonReset == 1 ) ) {
;
L0D08:	lda     _glueButtonReset
	cmp     #$01
	jne     incsp4
;
; glueButtonReset = 0;
;
	lda     #$00
	sta     _glueButtonReset
;
; glueY = ((playerY + 1));
;
	lda     _playerY
	clc
	adc     #$01
	ldy     #$02
	sta     (sp),y
;
; if ( playerDir == PAD_RIGHT ) {
;
	lda     _playerDir
	cmp     #$80
	bne     L0CFE
;
; glueX = playerX + 16;
;
	lda     _playerX
	clc
	adc     #$10
;
; } else {
;
	jmp     L0D06
;
; glueX = playerX - 16;
;
L0CFE:	lda     _playerX
	sec
	sbc     #$10
L0D06:	iny
	sta     (sp),y
;
; getCollisionIndex(glueX + 8, glueY + 8);
;
	clc
	adc     #$08
	jsr     pusha
	ldy     #$03
	lda     (sp),y
	clc
	adc     #$08
	jsr     _getCollisionIndex
;
; if ( ( collisionMap[collisionIndex] != TILE_ALLCOLLIDE ) && 
;
	lda     #<(_collisionMap)
	sta     ptr1
	lda     #>(_collisionMap)
	clc
	adc     _collisionIndex+1
	sta     ptr1+1
	ldy     _collisionIndex
	lda     (ptr1),y
	cmp     #$01
	bne     L0D09
;
; }
;
	jmp     incsp4
;
; ( collisionMap[collisionIndex] != TILE_LADDER_TOP ) ) {
;
L0D09:	lda     #<(_collisionMap)
	sta     ptr1
	lda     #>(_collisionMap)
	clc
	adc     _collisionIndex+1
	sta     ptr1+1
	ldy     _collisionIndex
	lda     (ptr1),y
	cmp     #$07
	jeq     incsp4
;
; i = 0;
;
	lda     #$00
	sta     _i
;
; if ( glueData[i].isActive == 0 ) {
;
L0D01:	lda     _i
	jsr     pusha0
	lda     #$17
	jsr     tosmula0
	clc
	adc     #<(_glueData)
	sta     ptr1
	txa
	adc     #>(_glueData)
	sta     ptr1+1
	ldy     #$03
	ldx     #$00
	lda     (ptr1),y
	bne     L0D02
;
; newGlueIndex = i; 
;
	lda     _i
	ldy     #$01
;
; } else if ( glueData[i].collisionIndex == collisionIndex ) {
;
	jmp     L0CF7
L0D02:	lda     _i
	jsr     pusha0
	lda     #$17
	jsr     tosmula0
	clc
	adc     #<(_glueData)
	sta     ptr1
	txa
	adc     #>(_glueData)
	sta     ptr1+1
	ldy     #$05
	ldx     #$00
	lda     (ptr1),y
	cpx     _collisionIndex+1
	bne     L0D03
	cmp     _collisionIndex
	bne     L0D03
;
; duplicateFound = 1;
;
	lda     #$01
	ldy     #$00
L0CF7:	sta     (sp),y
;
; ++i;
;
L0D03:	inc     _i
;
; } while ( ( newGlueIndex == 255 ) && ( i < MAX_GLUE_COUNT ) && !duplicateFound );
;
	ldy     #$01
	lda     (sp),y
	cmp     #$FF
	bne     L0D07
	lda     _i
	bne     L0D07
	lda     (sp,x)
	beq     L0D01
;
; if ( newGlueIndex < 255 ) {
;
	ldy     #$01
L0D07:	lda     (sp),y
	cmp     #$FF
	bcc     L0D0A
;
; }
;
	jmp     incsp4
;
; gluePointer = &(glueData[newGlueIndex]);
;
L0D0A:	jsr     pusha0
	lda     #$17
	jsr     tosmula0
	clc
	adc     #<(_glueData)
	tay
	txa
	adc     #>(_glueData)
	tax
	tya
	sta     _gluePointer
	stx     _gluePointer+1
;
; gluePointer->x = glueX;
;
	sta     ptr1
	stx     ptr1+1
	ldy     #$03
	lda     (sp),y
	ldy     #$00
	sta     (ptr1),y
;
; gluePointer->y = glueY - 1;
;
	lda     _gluePointer
	sta     ptr1
	lda     _gluePointer+1
	sta     ptr1+1
	ldy     #$02
	lda     (sp),y
	sec
	sbc     #$01
	dey
	sta     (ptr1),y
;
; gluePointer->frame = 0;
;
	lda     _gluePointer
	sta     ptr1
	lda     _gluePointer+1
	sta     ptr1+1
	lda     #$00
	ldy     #$04
	sta     (ptr1),y
;
; gluePointer->isActive = 1;
;
	lda     _gluePointer
	sta     ptr1
	lda     _gluePointer+1
	sta     ptr1+1
	lda     #$01
	dey
	sta     (ptr1),y
;
; gluePointer->timeLeft = GLUE_INIT_LIFESPAN;
;
	lda     _gluePointer
	sta     ptr1
	lda     _gluePointer+1
	sta     ptr1+1
	lda     #$F0
	dey
	sta     (ptr1),y
;
; memcpy(gluePointer->spriteData, glueSpriteDataTemplate, sizeof(glueSpriteDataTemplate));
;
	lda     _gluePointer
	ldx     _gluePointer+1
	clc
	adc     #$06
	bcc     L0BA0
	inx
L0BA0:	jsr     pushax
	lda     #<(_glueSpriteDataTemplate)
	ldx     #>(_glueSpriteDataTemplate)
	jsr     pushax
	ldx     #$00
	lda     #$11
	jsr     _memcpy
;
; sfx_play(SFX_GLUEDROP, CHANNEL_SQUARE1);        
;
	lda     #$01
	jsr     pusha
	lda     #$00
	jsr     _sfx_play
;
; }
;
	jmp     incsp4

.endproc

; ---------------------------------------------------------------
; void __near__ updatePlayerState (void)
; ---------------------------------------------------------------

.segment	"CODE"

.proc	_updatePlayerState: near

.segment	"CODE"

;
; if ( playerState == PLAYER_STATE_DEAD ) {
;
	lda     _playerState
	cmp     #$01
	bne     L0BA8
;
; ++playerAnimationCounter;
;
	inc     _playerAnimationCounter
;
; if ( playerAnimationCounter == PLAYER_DEAD_INTERVAL ) {
;
	lda     _playerAnimationCounter
	cmp     #$5A
	bne     L0BB2
;
; setupMap();
;
	jsr     _setupMap
;
; playerState = PLAYER_STATE_NORMAL;
;
	lda     #$00
	sta     _playerState
;
; playerAnimationCounter = 0;
;
	sta     _playerAnimationCounter
;
; } else {
;
	rts
;
; updatePlayerHorizontalMovement();
;
L0BA8:	jsr     _updatePlayerHorizontalMovement
;
; updatePlayerVerticalMovement();
;
	jsr     _updatePlayerVerticalMovement
;
; updatePlayerGlue();  
;
	jmp     _updatePlayerGlue
;
; }
;
L0BB2:	rts

.endproc

; ---------------------------------------------------------------
; void __near__ updateGlues (void)
; ---------------------------------------------------------------

.segment	"CODE"

.proc	_updateGlues: near

.segment	"CODE"

;
; for ( i = 0; i < MAX_GLUE_COUNT; ++i ) {
;
	lda     #$00
	sta     _i
L0D0D:	lda     _i
	beq     L0D12
;
; }
;
	rts
;
; gluePointer = &(glueData[i]);
;
L0D12:	lda     _i
	jsr     pusha0
	lda     #$17
	jsr     tosmula0
	clc
	adc     #<(_glueData)
	tay
	txa
	adc     #>(_glueData)
	tax
	tya
	sta     _gluePointer
	stx     _gluePointer+1
;
; if ( gluePointer->isActive ) {
;
	sta     ptr1
	stx     ptr1+1
	ldy     #$03
	lda     (ptr1),y
	jeq     L0D11
;
; --(gluePointer->timeLeft); 
;
	lda     _gluePointer
	sta     ptr1
	lda     _gluePointer+1
	sta     ptr1+1
	dey
	lda     (ptr1),y
	sec
	sbc     #$01
	sta     (ptr1),y
;
; if ( gluePointer->timeLeft <= 0 ) {
;
	lda     _gluePointer
	sta     ptr1
	lda     _gluePointer+1
	sta     ptr1+1
	lda     (ptr1),y
	bne     L0BC7
;
; gluePointer->isActive = 0;
;
	lda     _gluePointer
	sta     ptr1
	lda     _gluePointer+1
	sta     ptr1+1
	lda     #$00
	iny
	sta     (ptr1),y
;
; gluePointer->collisionIndex = 0;
;
	lda     _gluePointer
	sta     ptr1
	lda     _gluePointer+1
	sta     ptr1+1
	lda     #$00
	ldy     #$05
;
; } else {
;
	jmp     L0D0C
;
; getCollisionIndex(gluePointer->x + 8, gluePointer->y + 18);
;
L0BC7:	lda     _gluePointer
	sta     ptr1
	lda     _gluePointer+1
	sta     ptr1+1
	ldy     #$00
	lda     (ptr1),y
	clc
	adc     #$08
	jsr     pusha
	lda     _gluePointer
	sta     ptr1
	lda     _gluePointer+1
	sta     ptr1+1
	ldy     #$01
	lda     (ptr1),y
	clc
	adc     #$12
	jsr     _getCollisionIndex
;
; if ( ( collisionMap[collisionIndex] == TILE_ALLCOLLIDE ) || ( collisionMap[collisionIndex] == TILE_LADDER_TOP ) ) {
;
	lda     #<(_collisionMap)
	sta     ptr1
	lda     #>(_collisionMap)
	clc
	adc     _collisionIndex+1
	sta     ptr1+1
	ldy     _collisionIndex
	lda     (ptr1),y
	cmp     #$01
	beq     L0D0F
	lda     #<(_collisionMap)
	sta     ptr1
	lda     #>(_collisionMap)
	clc
	adc     _collisionIndex+1
	sta     ptr1+1
	ldy     _collisionIndex
	lda     (ptr1),y
	cmp     #$07
	bne     L0BD3
;
; gluePointer->collisionIndex = collisionIndex;
;
L0D0F:	lda     _gluePointer
	sta     ptr1
	lda     _gluePointer+1
	sta     ptr1+1
	lda     _collisionIndex
	ldy     #$05
	sta     (ptr1),y
;
; gluePointer->y = ((gluePointer->y + 8 ) & 0xF0) - 1;
;
	lda     _gluePointer
	sta     sreg
	lda     _gluePointer+1
	sta     sreg+1
	lda     _gluePointer
	sta     ptr1
	lda     _gluePointer+1
	sta     ptr1+1
	ldy     #$01
	lda     (ptr1),y
	clc
	adc     #$08
	and     #$F0
	sec
	sbc     #$01
	sta     (sreg),y
;
; } else {
;
	jmp     L0D11
;
; four_Sides(gluePointer->x, gluePointer->y + 2);
;
L0BD3:	lda     _gluePointer
	sta     ptr1
	lda     _gluePointer+1
	sta     ptr1+1
	ldy     #$00
	lda     (ptr1),y
	jsr     pusha
	lda     _gluePointer
	sta     ptr1
	lda     _gluePointer+1
	sta     ptr1+1
	ldy     #$01
	lda     (ptr1),y
	clc
	adc     #$02
	jsr     _four_Sides
;
; glueCollideCheck();
;
	jsr     _glueCollideCheck
;
; if ( glueColliding && ( glueCollidedIndex != i ) ) {
;
	lda     _glueColliding
	beq     L0BE8
	lda     _i
	cmp     _glueCollidedIndex
	beq     L0BE8
;
; gluePointer->isActive = 0;
;
	lda     _gluePointer
	sta     ptr1
	lda     _gluePointer+1
	sta     ptr1+1
	lda     #$00
	ldy     #$03
	sta     (ptr1),y
;
; gluePointer->collisionIndex = 0;
;
	lda     _gluePointer
	sta     ptr1
	lda     _gluePointer+1
	sta     ptr1+1
	lda     #$00
	ldy     #$05
;
; } else {
;
	jmp     L0D0C
;
; gluePointer->y += 2;
;
L0BE8:	lda     _gluePointer
	sta     ptr1
	lda     _gluePointer+1
	sta     ptr1+1
	ldy     #$01
	lda     (ptr1),y
	clc
	adc     #$02
L0D0C:	sta     (ptr1),y
;
; for ( i = 0; i < MAX_GLUE_COUNT; ++i ) {
;
L0D11:	inc     _i
	jmp     L0D0D

.endproc

; ---------------------------------------------------------------
; void __near__ main (void)
; ---------------------------------------------------------------

.segment	"CODE"

.proc	_main: near

.segment	"CODE"

;
; memcpy(tileUpdateList, tileUpdateListInit, sizeof(tileUpdateListInit));
;
	ldy     #$1B
L0BFA:	lda     _tileUpdateListInit,y
	sta     _tileUpdateList,y
	dey
	bpl     L0BFA
;
; memcpy(scoreUpdateList, scoreUpdateListData, sizeof(scoreUpdateListData)); 
;
	ldy     #$07
L0C00:	lda     _scoreUpdateListData,y
	sta     _scoreUpdateList,y
	dey
	bpl     L0C00
;
; memcpy(palSprites, paldat, 16);
;
	ldy     #$0F
L0C05:	lda     _paldat,y
	sta     _palSprites,y
	dey
	bpl     L0C05
;
; pal_spr(palSprites);
;
	lda     #<(_palSprites)
	ldx     #>(_palSprites)
	jsr     _pal_spr
;
; pal_bg(bgPalette);
;
	lda     #<(_bgPalette)
	ldx     #>(_bgPalette)
	jsr     _pal_bg
;
; playerDir = PAD_LEFT;
;
	lda     #$40
	sta     _playerDir
;
; touch = 0; // collision flag
;
	lda     #$00
	sta     _touch
;
; frameCount = 0; // frame counter
;
	sta     _frameCount
;
; playerFrame = 0;
;
	sta     _playerFrame
;
; setSpriteFrame(playerSpriteData, playerFrames[playerFrame]);
;
	lda     #<(_playerSpriteData)
	ldx     #>(_playerSpriteData)
	jsr     pushax
	ldx     #$00
	lda     _playerFrame
	jsr     aslax2
	clc
	adc     #<(_playerFrames)
	tay
	txa
	adc     #>(_playerFrames)
	tax
	tya
	jsr     _setSpriteFrame
;
; playerLives = PLAYER_INIT_LIVES;
;
	lda     #$03
	sta     _playerLives
;
; vram_adr(NAMETABLE_A); //unpack nametable into VRAM
;
L0C18:	ldx     #$20
	lda     #$00
	jsr     _vram_adr
;
; vram_unrle(map2); 
;
	lda     #<(_map2)
	ldx     #>(_map2)
	jsr     _vram_unrle
;
; setupMap();
;
	jsr     _setupMap
;
; ppu_off();
;
	jsr     _ppu_off
;
; drawScoreboard();
;
	jsr     _drawScoreboard
;
; ppu_on_all();
;
	jsr     _ppu_on_all
;
; levelComplete = 0;
;
	lda     #$00
	sta     _levelComplete
;
; while ( !levelComplete )
;
	jmp     L0C28
;
; ppu_wait_frame(); // wait for next TV frame
;
L0C26:	jsr     _ppu_wait_frame
;
; updateScoreboard();
;
	jsr     _updateScoreboard
;
; oamSpriteIndex = 0;
;
	lda     #$00
	sta     _oamSpriteIndex
;
; i = 0;
;
	sta     _i
;
; sprPriorityToggle = frameCount & 0xFE;
;
	lda     _frameCount
	and     #$FE
	sta     _sprPriorityToggle
;
; pad = pad_poll(i);
;
	lda     _i
	jsr     _pad_poll
	sta     _pad
;
; updatePlayerSprite();
;
	jsr     _updatePlayerSprite
;
; updateEnemySprites();
;
	jsr     _updateEnemySprites
;
; updateGlueSprites();
;
	jsr     _updateGlueSprites
;
; updatePlatformSprites();
;
	jsr     _updatePlatformSprites
;
; spriteCount();
;
	jsr     _spriteCount
;
; updatePlayerState();
;
	jsr     _updatePlayerState
;
; if ( playerState != PLAYER_STATE_DEAD ) {
;
	lda     _playerState
	cmp     #$01
	beq     L0C3B
;
; checkPlayerGetItems();
;
	jsr     _checkPlayerGetItems
;
; updateEnemyMovement(); 
;
	jsr     _updateEnemyMovement
;
; updateGlues();
;
	jsr     _updateGlues
;
; enemyColliding = 0;
;
	lda     #$00
	sta     _enemyColliding
;
; four_Sides(playerX, playerY);
;
	lda     _playerX
	jsr     pusha
	lda     _playerY
	jsr     _four_Sides
;
; playerEnemyCollideCheck();
;
	jsr     _playerEnemyCollideCheck
;
; playerEnemyColliding = enemyColliding;
;
	lda     _enemyColliding
	sta     _playerEnemyColliding
;
; glueEnemyCollideCheck();   
;
	jsr     _glueEnemyCollideCheck
;
; oam_hide_rest(oamSpriteIndex);
;
L0C3B:	lda     _oamSpriteIndex
	jsr     _oam_hide_rest
;
; ++frameCount;
;
	inc     _frameCount
;
; while ( !levelComplete )
;
L0C28:	lda     _levelComplete
	beq     L0C26
;
; while ( 1 ) {
;
	jmp     L0C18

.endproc

