;
; File generated by cc65 v 2.16 - Git N/A
;
	.fopt		compiler,"cc65 v 2.16 - Git N/A"
	.setcpu		"6502"
	.smart		on
	.autoimport	on
	.case		on
	.debuginfo	off
	.importzp	sp, sreg, regsave, regbank
	.importzp	tmp1, tmp2, tmp3, tmp4, ptr1, ptr2, ptr3, ptr4
	.macpack	longbranch
	.forceimport	__STARTUP__
	.import		_pal_bg
	.import		_pal_spr
	.import		_ppu_wait_frame
	.import		_ppu_on_all
	.import		_oam_meta_spr
	.import		_pad_poll
	.import		_vram_adr
	.import		_vram_unrle
	.export		_test_nam
	.export		_testColl
	.export		_X1_Right_Side
	.export		_X1_Left_Side
	.export		_Y1_Bottom
	.export		_Y1_Top
	.export		_corner
	.export		_testSprite
	.export		_palSprites
	.export		_palSpritesAlt
	.export		_palBG
	.export		_four_Sides
	.export		_getCollisionIndex
	.export		_collide_Check_LR
	.export		_collide_Check_UD
	.export		_checkCollision
	.export		_main

.segment	"RODATA"

_test_nam:
	.byte	$01
	.byte	$40
	.byte	$01
	.byte	$40
	.byte	$00
	.byte	$01
	.byte	$0A
	.byte	$41
	.byte	$01
	.byte	$02
	.byte	$00
	.byte	$01
	.byte	$0F
	.byte	$40
	.byte	$40
	.byte	$00
	.byte	$01
	.byte	$0D
	.byte	$41
	.byte	$00
	.byte	$01
	.byte	$0E
	.byte	$40
	.byte	$40
	.byte	$00
	.byte	$01
	.byte	$0E
	.byte	$41
	.byte	$00
	.byte	$01
	.byte	$0D
	.byte	$40
	.byte	$40
	.byte	$00
	.byte	$01
	.byte	$1D
	.byte	$40
	.byte	$40
	.byte	$00
	.byte	$01
	.byte	$10
	.byte	$41
	.byte	$00
	.byte	$01
	.byte	$0B
	.byte	$40
	.byte	$40
	.byte	$00
	.byte	$01
	.byte	$1D
	.byte	$40
	.byte	$40
	.byte	$00
	.byte	$01
	.byte	$12
	.byte	$41
	.byte	$00
	.byte	$01
	.byte	$09
	.byte	$40
	.byte	$40
	.byte	$00
	.byte	$01
	.byte	$1D
	.byte	$40
	.byte	$40
	.byte	$50
	.byte	$00
	.byte	$01
	.byte	$13
	.byte	$41
	.byte	$00
	.byte	$01
	.byte	$07
	.byte	$40
	.byte	$40
	.byte	$50
	.byte	$00
	.byte	$01
	.byte	$1C
	.byte	$40
	.byte	$40
	.byte	$50
	.byte	$00
	.byte	$01
	.byte	$1C
	.byte	$40
	.byte	$40
	.byte	$50
	.byte	$00
	.byte	$01
	.byte	$1C
	.byte	$40
	.byte	$40
	.byte	$50
	.byte	$00
	.byte	$01
	.byte	$1C
	.byte	$40
	.byte	$40
	.byte	$00
	.byte	$01
	.byte	$1D
	.byte	$40
	.byte	$40
	.byte	$00
	.byte	$01
	.byte	$1D
	.byte	$40
	.byte	$40
	.byte	$00
	.byte	$01
	.byte	$1D
	.byte	$40
	.byte	$40
	.byte	$00
	.byte	$01
	.byte	$19
	.byte	$41
	.byte	$41
	.byte	$00
	.byte	$00
	.byte	$40
	.byte	$40
	.byte	$00
	.byte	$01
	.byte	$1A
	.byte	$41
	.byte	$01
	.byte	$02
	.byte	$40
	.byte	$40
	.byte	$00
	.byte	$01
	.byte	$1D
	.byte	$40
	.byte	$40
	.byte	$00
	.byte	$01
	.byte	$1D
	.byte	$40
	.byte	$40
	.byte	$00
	.byte	$01
	.byte	$1D
	.byte	$40
	.byte	$40
	.byte	$00
	.byte	$01
	.byte	$1D
	.byte	$40
	.byte	$40
	.byte	$00
	.byte	$01
	.byte	$1D
	.byte	$40
	.byte	$40
	.byte	$00
	.byte	$01
	.byte	$02
	.byte	$40
	.byte	$01
	.byte	$04
	.byte	$00
	.byte	$01
	.byte	$03
	.byte	$40
	.byte	$01
	.byte	$05
	.byte	$00
	.byte	$01
	.byte	$03
	.byte	$40
	.byte	$01
	.byte	$04
	.byte	$00
	.byte	$01
	.byte	$02
	.byte	$40
	.byte	$40
	.byte	$00
	.byte	$00
	.byte	$41
	.byte	$01
	.byte	$05
	.byte	$00
	.byte	$01
	.byte	$03
	.byte	$41
	.byte	$01
	.byte	$05
	.byte	$00
	.byte	$01
	.byte	$03
	.byte	$41
	.byte	$01
	.byte	$06
	.byte	$00
	.byte	$40
	.byte	$40
	.byte	$00
	.byte	$01
	.byte	$04
	.byte	$41
	.byte	$41
	.byte	$00
	.byte	$01
	.byte	$16
	.byte	$40
	.byte	$01
	.byte	$40
	.byte	$00
	.byte	$01
	.byte	$3E
	.byte	$00
	.byte	$01
	.byte	$00
_testColl:
	.byte	$01
	.byte	$01
	.byte	$01
	.byte	$01
	.byte	$01
	.byte	$01
	.byte	$01
	.byte	$01
	.byte	$01
	.byte	$01
	.byte	$01
	.byte	$01
	.byte	$01
	.byte	$01
	.byte	$01
	.byte	$01
	.byte	$01
	.byte	$01
	.byte	$01
	.byte	$01
	.byte	$01
	.byte	$01
	.byte	$01
	.byte	$01
	.byte	$01
	.byte	$01
	.byte	$01
	.byte	$01
	.byte	$01
	.byte	$01
	.byte	$01
	.byte	$01
	.byte	$01
	.byte	$01
	.byte	$01
	.byte	$01
	.byte	$01
	.byte	$01
	.byte	$01
	.byte	$01
	.byte	$01
	.byte	$01
	.byte	$01
	.byte	$01
	.byte	$01
	.byte	$01
	.byte	$01
	.byte	$01
	.byte	$01
	.byte	$01
	.byte	$01
	.byte	$01
	.byte	$01
	.byte	$01
	.byte	$01
	.byte	$01
	.byte	$01
	.byte	$01
	.byte	$01
	.byte	$01
	.byte	$01
	.byte	$01
	.byte	$01
	.byte	$01
	.byte	$01
	.byte	$00
	.byte	$00
	.byte	$00
	.byte	$00
	.byte	$00
	.byte	$00
	.byte	$00
	.byte	$00
	.byte	$00
	.byte	$00
	.byte	$00
	.byte	$00
	.byte	$00
	.byte	$00
	.byte	$00
	.byte	$00
	.byte	$00
	.byte	$00
	.byte	$00
	.byte	$00
	.byte	$00
	.byte	$00
	.byte	$00
	.byte	$00
	.byte	$00
	.byte	$00
	.byte	$00
	.byte	$00
	.byte	$00
	.byte	$00
	.byte	$01
	.byte	$01
	.byte	$00
	.byte	$00
	.byte	$00
	.byte	$00
	.byte	$00
	.byte	$00
	.byte	$00
	.byte	$00
	.byte	$00
	.byte	$00
	.byte	$00
	.byte	$00
	.byte	$00
	.byte	$00
	.byte	$00
	.byte	$00
	.byte	$00
	.byte	$00
	.byte	$00
	.byte	$00
	.byte	$00
	.byte	$00
	.byte	$00
	.byte	$00
	.byte	$00
	.byte	$00
	.byte	$00
	.byte	$00
	.byte	$00
	.byte	$00
	.byte	$01
	.byte	$01
	.byte	$00
	.byte	$00
	.byte	$00
	.byte	$00
	.byte	$00
	.byte	$00
	.byte	$00
	.byte	$00
	.byte	$00
	.byte	$00
	.byte	$00
	.byte	$00
	.byte	$00
	.byte	$00
	.byte	$00
	.byte	$00
	.byte	$00
	.byte	$00
	.byte	$00
	.byte	$00
	.byte	$00
	.byte	$00
	.byte	$00
	.byte	$00
	.byte	$00
	.byte	$00
	.byte	$00
	.byte	$00
	.byte	$00
	.byte	$00
	.byte	$01
	.byte	$01
	.byte	$00
	.byte	$00
	.byte	$00
	.byte	$00
	.byte	$00
	.byte	$00
	.byte	$00
	.byte	$00
	.byte	$00
	.byte	$00
	.byte	$00
	.byte	$00
	.byte	$00
	.byte	$00
	.byte	$00
	.byte	$00
	.byte	$00
	.byte	$00
	.byte	$00
	.byte	$00
	.byte	$00
	.byte	$00
	.byte	$00
	.byte	$00
	.byte	$00
	.byte	$00
	.byte	$00
	.byte	$00
	.byte	$00
	.byte	$00
	.byte	$01
	.byte	$01
	.byte	$00
	.byte	$00
	.byte	$00
	.byte	$00
	.byte	$00
	.byte	$00
	.byte	$00
	.byte	$00
	.byte	$00
	.byte	$00
	.byte	$00
	.byte	$00
	.byte	$00
	.byte	$00
	.byte	$00
	.byte	$00
	.byte	$00
	.byte	$00
	.byte	$00
	.byte	$00
	.byte	$00
	.byte	$00
	.byte	$00
	.byte	$00
	.byte	$00
	.byte	$00
	.byte	$00
	.byte	$00
	.byte	$00
	.byte	$00
	.byte	$01
	.byte	$01
	.byte	$00
	.byte	$00
	.byte	$00
	.byte	$00
	.byte	$00
	.byte	$00
	.byte	$00
	.byte	$00
	.byte	$00
	.byte	$00
	.byte	$00
	.byte	$00
	.byte	$00
	.byte	$00
	.byte	$00
	.byte	$00
	.byte	$00
	.byte	$00
	.byte	$00
	.byte	$00
	.byte	$00
	.byte	$00
	.byte	$00
	.byte	$00
	.byte	$00
	.byte	$00
	.byte	$00
	.byte	$00
	.byte	$00
	.byte	$00
	.byte	$01
	.byte	$01
	.byte	$00
	.byte	$00
	.byte	$00
	.byte	$00
	.byte	$00
	.byte	$00
	.byte	$00
	.byte	$00
	.byte	$00
	.byte	$00
	.byte	$00
	.byte	$00
	.byte	$00
	.byte	$00
	.byte	$00
	.byte	$00
	.byte	$00
	.byte	$00
	.byte	$00
	.byte	$00
	.byte	$00
	.byte	$00
	.byte	$00
	.byte	$00
	.byte	$00
	.byte	$00
	.byte	$00
	.byte	$00
	.byte	$00
	.byte	$00
	.byte	$01
	.byte	$01
	.byte	$00
	.byte	$00
	.byte	$00
	.byte	$00
	.byte	$00
	.byte	$00
	.byte	$00
	.byte	$00
	.byte	$00
	.byte	$00
	.byte	$00
	.byte	$00
	.byte	$00
	.byte	$00
	.byte	$00
	.byte	$00
	.byte	$00
	.byte	$00
	.byte	$00
	.byte	$00
	.byte	$00
	.byte	$00
	.byte	$00
	.byte	$00
	.byte	$00
	.byte	$00
	.byte	$00
	.byte	$00
	.byte	$00
	.byte	$00
	.byte	$01
	.byte	$01
	.byte	$00
	.byte	$00
	.byte	$00
	.byte	$00
	.byte	$00
	.byte	$00
	.byte	$00
	.byte	$00
	.byte	$00
	.byte	$00
	.byte	$00
	.byte	$00
	.byte	$00
	.byte	$00
	.byte	$00
	.byte	$00
	.byte	$00
	.byte	$00
	.byte	$00
	.byte	$00
	.byte	$00
	.byte	$00
	.byte	$00
	.byte	$00
	.byte	$00
	.byte	$00
	.byte	$00
	.byte	$00
	.byte	$00
	.byte	$00
	.byte	$01
	.byte	$01
	.byte	$00
	.byte	$00
	.byte	$00
	.byte	$00
	.byte	$00
	.byte	$00
	.byte	$00
	.byte	$00
	.byte	$00
	.byte	$00
	.byte	$00
	.byte	$00
	.byte	$00
	.byte	$00
	.byte	$00
	.byte	$00
	.byte	$00
	.byte	$00
	.byte	$00
	.byte	$00
	.byte	$00
	.byte	$00
	.byte	$00
	.byte	$00
	.byte	$00
	.byte	$00
	.byte	$00
	.byte	$00
	.byte	$00
	.byte	$00
	.byte	$01
	.byte	$01
	.byte	$00
	.byte	$00
	.byte	$00
	.byte	$00
	.byte	$00
	.byte	$00
	.byte	$00
	.byte	$00
	.byte	$00
	.byte	$00
	.byte	$00
	.byte	$00
	.byte	$00
	.byte	$00
	.byte	$00
	.byte	$00
	.byte	$00
	.byte	$00
	.byte	$00
	.byte	$00
	.byte	$00
	.byte	$00
	.byte	$00
	.byte	$00
	.byte	$00
	.byte	$00
	.byte	$00
	.byte	$00
	.byte	$00
	.byte	$00
	.byte	$01
	.byte	$01
	.byte	$00
	.byte	$00
	.byte	$00
	.byte	$00
	.byte	$00
	.byte	$00
	.byte	$00
	.byte	$00
	.byte	$00
	.byte	$00
	.byte	$00
	.byte	$00
	.byte	$00
	.byte	$00
	.byte	$00
	.byte	$00
	.byte	$00
	.byte	$00
	.byte	$00
	.byte	$00
	.byte	$00
	.byte	$00
	.byte	$00
	.byte	$00
	.byte	$00
	.byte	$00
	.byte	$00
	.byte	$00
	.byte	$00
	.byte	$00
	.byte	$01
	.byte	$01
	.byte	$00
	.byte	$00
	.byte	$00
	.byte	$00
	.byte	$00
	.byte	$00
	.byte	$00
	.byte	$00
	.byte	$00
	.byte	$00
	.byte	$00
	.byte	$00
	.byte	$00
	.byte	$00
	.byte	$00
	.byte	$00
	.byte	$00
	.byte	$00
	.byte	$00
	.byte	$00
	.byte	$00
	.byte	$00
	.byte	$00
	.byte	$00
	.byte	$00
	.byte	$00
	.byte	$00
	.byte	$00
	.byte	$00
	.byte	$00
	.byte	$01
	.byte	$01
	.byte	$00
	.byte	$00
	.byte	$00
	.byte	$00
	.byte	$00
	.byte	$00
	.byte	$00
	.byte	$00
	.byte	$00
	.byte	$00
	.byte	$00
	.byte	$00
	.byte	$00
	.byte	$00
	.byte	$00
	.byte	$00
	.byte	$00
	.byte	$00
	.byte	$00
	.byte	$00
	.byte	$00
	.byte	$00
	.byte	$00
	.byte	$00
	.byte	$00
	.byte	$00
	.byte	$00
	.byte	$00
	.byte	$00
	.byte	$00
	.byte	$01
	.byte	$01
	.byte	$00
	.byte	$00
	.byte	$00
	.byte	$00
	.byte	$00
	.byte	$00
	.byte	$00
	.byte	$00
	.byte	$00
	.byte	$00
	.byte	$00
	.byte	$00
	.byte	$00
	.byte	$00
	.byte	$00
	.byte	$00
	.byte	$00
	.byte	$00
	.byte	$00
	.byte	$00
	.byte	$00
	.byte	$00
	.byte	$00
	.byte	$00
	.byte	$00
	.byte	$00
	.byte	$00
	.byte	$00
	.byte	$00
	.byte	$00
	.byte	$01
	.byte	$01
	.byte	$00
	.byte	$00
	.byte	$00
	.byte	$00
	.byte	$00
	.byte	$00
	.byte	$00
	.byte	$00
	.byte	$00
	.byte	$00
	.byte	$00
	.byte	$00
	.byte	$00
	.byte	$00
	.byte	$00
	.byte	$00
	.byte	$00
	.byte	$00
	.byte	$00
	.byte	$00
	.byte	$00
	.byte	$00
	.byte	$00
	.byte	$00
	.byte	$00
	.byte	$00
	.byte	$00
	.byte	$00
	.byte	$00
	.byte	$00
	.byte	$01
	.byte	$01
	.byte	$00
	.byte	$00
	.byte	$00
	.byte	$00
	.byte	$00
	.byte	$00
	.byte	$00
	.byte	$00
	.byte	$00
	.byte	$00
	.byte	$00
	.byte	$00
	.byte	$00
	.byte	$00
	.byte	$00
	.byte	$00
	.byte	$00
	.byte	$00
	.byte	$00
	.byte	$00
	.byte	$00
	.byte	$00
	.byte	$00
	.byte	$00
	.byte	$00
	.byte	$00
	.byte	$00
	.byte	$00
	.byte	$00
	.byte	$00
	.byte	$01
	.byte	$01
	.byte	$00
	.byte	$00
	.byte	$00
	.byte	$00
	.byte	$00
	.byte	$00
	.byte	$00
	.byte	$00
	.byte	$00
	.byte	$00
	.byte	$00
	.byte	$00
	.byte	$00
	.byte	$00
	.byte	$00
	.byte	$00
	.byte	$00
	.byte	$00
	.byte	$00
	.byte	$00
	.byte	$00
	.byte	$00
	.byte	$00
	.byte	$00
	.byte	$00
	.byte	$00
	.byte	$00
	.byte	$00
	.byte	$00
	.byte	$00
	.byte	$01
	.byte	$01
	.byte	$00
	.byte	$00
	.byte	$00
	.byte	$00
	.byte	$00
	.byte	$00
	.byte	$00
	.byte	$00
	.byte	$00
	.byte	$00
	.byte	$00
	.byte	$00
	.byte	$00
	.byte	$00
	.byte	$00
	.byte	$00
	.byte	$00
	.byte	$00
	.byte	$00
	.byte	$00
	.byte	$00
	.byte	$00
	.byte	$00
	.byte	$00
	.byte	$00
	.byte	$00
	.byte	$00
	.byte	$00
	.byte	$00
	.byte	$00
	.byte	$01
	.byte	$01
	.byte	$00
	.byte	$00
	.byte	$00
	.byte	$00
	.byte	$00
	.byte	$00
	.byte	$00
	.byte	$00
	.byte	$00
	.byte	$00
	.byte	$00
	.byte	$00
	.byte	$00
	.byte	$00
	.byte	$00
	.byte	$00
	.byte	$00
	.byte	$00
	.byte	$00
	.byte	$00
	.byte	$00
	.byte	$00
	.byte	$00
	.byte	$00
	.byte	$00
	.byte	$00
	.byte	$00
	.byte	$00
	.byte	$00
	.byte	$00
	.byte	$01
	.byte	$01
	.byte	$00
	.byte	$00
	.byte	$00
	.byte	$00
	.byte	$00
	.byte	$00
	.byte	$00
	.byte	$00
	.byte	$00
	.byte	$00
	.byte	$00
	.byte	$00
	.byte	$00
	.byte	$00
	.byte	$00
	.byte	$00
	.byte	$00
	.byte	$00
	.byte	$00
	.byte	$00
	.byte	$00
	.byte	$00
	.byte	$00
	.byte	$00
	.byte	$00
	.byte	$00
	.byte	$00
	.byte	$00
	.byte	$00
	.byte	$00
	.byte	$01
	.byte	$01
	.byte	$00
	.byte	$00
	.byte	$00
	.byte	$00
	.byte	$00
	.byte	$00
	.byte	$00
	.byte	$00
	.byte	$00
	.byte	$00
	.byte	$00
	.byte	$00
	.byte	$00
	.byte	$00
	.byte	$00
	.byte	$00
	.byte	$00
	.byte	$00
	.byte	$00
	.byte	$00
	.byte	$00
	.byte	$00
	.byte	$00
	.byte	$00
	.byte	$00
	.byte	$00
	.byte	$00
	.byte	$00
	.byte	$00
	.byte	$00
	.byte	$01
	.byte	$01
	.byte	$00
	.byte	$00
	.byte	$00
	.byte	$00
	.byte	$00
	.byte	$00
	.byte	$00
	.byte	$00
	.byte	$00
	.byte	$00
	.byte	$00
	.byte	$00
	.byte	$00
	.byte	$00
	.byte	$00
	.byte	$00
	.byte	$00
	.byte	$00
	.byte	$00
	.byte	$00
	.byte	$00
	.byte	$00
	.byte	$00
	.byte	$00
	.byte	$00
	.byte	$00
	.byte	$00
	.byte	$00
	.byte	$00
	.byte	$00
	.byte	$01
	.byte	$01
	.byte	$00
	.byte	$00
	.byte	$00
	.byte	$01
	.byte	$01
	.byte	$01
	.byte	$01
	.byte	$01
	.byte	$00
	.byte	$00
	.byte	$00
	.byte	$00
	.byte	$01
	.byte	$01
	.byte	$01
	.byte	$01
	.byte	$01
	.byte	$01
	.byte	$00
	.byte	$00
	.byte	$00
	.byte	$00
	.byte	$01
	.byte	$01
	.byte	$01
	.byte	$01
	.byte	$01
	.byte	$00
	.byte	$00
	.byte	$00
	.byte	$01
	.byte	$01
	.byte	$00
	.byte	$00
	.byte	$00
	.byte	$00
	.byte	$00
	.byte	$00
	.byte	$00
	.byte	$00
	.byte	$00
	.byte	$00
	.byte	$00
	.byte	$00
	.byte	$00
	.byte	$00
	.byte	$00
	.byte	$00
	.byte	$00
	.byte	$00
	.byte	$00
	.byte	$00
	.byte	$00
	.byte	$00
	.byte	$00
	.byte	$00
	.byte	$00
	.byte	$00
	.byte	$00
	.byte	$00
	.byte	$00
	.byte	$00
	.byte	$01
	.byte	$01
	.byte	$00
	.byte	$00
	.byte	$00
	.byte	$00
	.byte	$00
	.byte	$00
	.byte	$00
	.byte	$00
	.byte	$00
	.byte	$00
	.byte	$00
	.byte	$00
	.byte	$00
	.byte	$00
	.byte	$00
	.byte	$00
	.byte	$00
	.byte	$00
	.byte	$00
	.byte	$00
	.byte	$00
	.byte	$00
	.byte	$00
	.byte	$00
	.byte	$00
	.byte	$00
	.byte	$00
	.byte	$00
	.byte	$00
	.byte	$00
	.byte	$01
	.byte	$01
	.byte	$01
	.byte	$01
	.byte	$01
	.byte	$01
	.byte	$01
	.byte	$01
	.byte	$01
	.byte	$01
	.byte	$01
	.byte	$01
	.byte	$01
	.byte	$01
	.byte	$01
	.byte	$01
	.byte	$01
	.byte	$01
	.byte	$01
	.byte	$01
	.byte	$01
	.byte	$01
	.byte	$01
	.byte	$01
	.byte	$01
	.byte	$01
	.byte	$01
	.byte	$01
	.byte	$01
	.byte	$01
	.byte	$01
	.byte	$01
	.byte	$01
	.byte	$01
	.byte	$01
	.byte	$01
	.byte	$01
	.byte	$01
	.byte	$01
	.byte	$01
	.byte	$01
	.byte	$01
	.byte	$01
	.byte	$01
	.byte	$01
	.byte	$01
	.byte	$01
	.byte	$01
	.byte	$01
	.byte	$01
	.byte	$01
	.byte	$01
	.byte	$01
	.byte	$01
	.byte	$01
	.byte	$01
	.byte	$01
	.byte	$01
	.byte	$01
	.byte	$01
	.byte	$01
	.byte	$01
	.byte	$01
	.byte	$01
	.byte	$01
_testSprite:
	.byte	$00
	.byte	$00
	.byte	$20
	.byte	$00
	.byte	$08
	.byte	$00
	.byte	$21
	.byte	$00
	.byte	$00
	.byte	$08
	.byte	$22
	.byte	$00
	.byte	$08
	.byte	$08
	.byte	$23
	.byte	$00
	.byte	$80
_palSprites:
	.byte	$0F
	.byte	$22
	.byte	$25
	.byte	$24
_palSpritesAlt:
	.byte	$0F
	.byte	$1B
	.byte	$19
	.byte	$29
_palBG:
	.byte	$0F
	.byte	$06
	.byte	$17
	.byte	$16

.segment	"BSS"

.segment	"BSS"
_player_x:
	.res	1,$00
.segment	"BSS"
_player_y:
	.res	1,$00
.segment	"BSS"
_colliding:
	.res	1,$00
.segment	"BSS"
_i:
	.res	1,$00
.segment	"BSS"
_pad:
	.res	1,$00
.segment	"BSS"
_spr:
	.res	1,$00
.segment	"BSS"
_touch:
	.res	1,$00
.segment	"BSS"
_frame:
	.res	1,$00
.segment	"BSS"
_X1_Right_Side:
	.res	1,$00
.segment	"BSS"
_X1_Left_Side:
	.res	1,$00
.segment	"BSS"
_Y1_Bottom:
	.res	1,$00
.segment	"BSS"
_Y1_Top:
	.res	1,$00
.segment	"BSS"
_corner:
	.res	2,$00

; ---------------------------------------------------------------
; void __near__ four_Sides (void)
; ---------------------------------------------------------------

.segment	"CODE"

.proc	_four_Sides: near

.segment	"CODE"

;
; if (player_x < (255)){ // find the left side
;
	lda     _player_x
	cmp     #$FF
	bcs     L059E
;
; X1_Left_Side = player_x + 1;
;
	clc
	adc     #$01
;
; else {
;
	jmp     L059B
;
; X1_Left_Side = 255;
;
L059E:	lda     #$FF
L059B:	sta     _X1_Left_Side
;
; if (player_x < (255 - 2)){ // find the right side
;
	lda     _player_x
	cmp     #$FD
	bcs     L059F
;
; X1_Right_Side = player_x + 15;
;
	clc
	adc     #$0F
;
; else {
;
	jmp     L059C
;
; X1_Right_Side = 255;
;
L059F:	lda     #$FF
L059C:	sta     _X1_Right_Side
;
; Y1_Top = player_y + 1; // our top is the same as the master Y
;
	lda     _player_y
	clc
	adc     #$01
	sta     _Y1_Top
;
; if (player_y < (255)){ // find the bottom side
;
	lda     _player_y
	cmp     #$FF
	bcs     L05A0
;
; Y1_Bottom = player_y + 15;
;
	clc
	adc     #$0F
;
; else {
;
	jmp     L059D
;
; Y1_Bottom = 255;
;
L05A0:	lda     #$FF
L059D:	sta     _Y1_Bottom
;
; }
;
	rts

.endproc

; ---------------------------------------------------------------
; int __near__ getCollisionIndex (unsigned char, unsigned char)
; ---------------------------------------------------------------

.segment	"CODE"

.proc	_getCollisionIndex: near

.segment	"CODE"

;
; int getCollisionIndex(unsigned char screenX, unsigned char screenY) {
;
	jsr     pusha
;
; return ((int) screenX >> 3) + (((int) screenY >> 3) << 5);
;
	ldy     #$01
	lda     (sp),y
	ldx     #$00
	lsr     a
	lsr     a
	lsr     a
	sta     ptr1
	stx     ptr1+1
	lda     (sp,x)
	lsr     a
	lsr     a
	lsr     a
	jsr     aslax4
	stx     tmp1
	asl     a
	rol     tmp1
	clc
	adc     ptr1
	pha
	lda     tmp1
	adc     ptr1+1
	tax
	pla
;
; }
;
	jmp     incsp2

.endproc

; ---------------------------------------------------------------
; void __near__ collide_Check_LR (void)
; ---------------------------------------------------------------

.segment	"CODE"

.proc	_collide_Check_LR: near

.segment	"CODE"

;
; four_Sides(); // set the L R bottom top variables
;
	jsr     _four_Sides
;
; if ((pad & PAD_RIGHT) != 0){  // first check right
;
	lda     _pad
	and     #$80
	beq     L05A2
;
; corner = getCollisionIndex(X1_Right_Side, Y1_Top); // top right
;
	lda     _X1_Right_Side
	jsr     pusha
	lda     _Y1_Top
	jsr     _getCollisionIndex
	sta     _corner
	stx     _corner+1
;
; if (testColl[corner] != 0)
;
	lda     #<(_testColl)
	sta     ptr1
	lda     #>(_testColl)
	clc
	adc     _corner+1
	sta     ptr1+1
	ldy     _corner
	lda     (ptr1),y
	beq     L04EA
;
; player_x = (player_x & 0xf8) + 1; // if collision, realign
;
	lda     _player_x
	and     #$F8
	clc
	adc     #$01
	sta     _player_x
;
; corner = getCollisionIndex(X1_Right_Side, Y1_Bottom); // bottom right
;
L04EA:	lda     _X1_Right_Side
	jsr     pusha
	lda     _Y1_Bottom
	jsr     _getCollisionIndex
	sta     _corner
	stx     _corner+1
;
; if (testColl[corner] != 0)
;
	lda     #<(_testColl)
	sta     ptr1
	lda     #>(_testColl)
	clc
	adc     _corner+1
	sta     ptr1+1
	ldy     _corner
	lda     (ptr1),y
	beq     L0510
;
; player_x = (player_x & 0xf8) + 1; // if collision, realign
;
	lda     _player_x
	and     #$F8
	clc
	adc     #$01
;
; else if ((pad & PAD_LEFT) != 0){ // check left
;
	jmp     L05A1
L05A2:	lda     _pad
	and     #$40
	beq     L0510
;
; corner = getCollisionIndex(X1_Left_Side, Y1_Top); // top left
;
	lda     _X1_Left_Side
	jsr     pusha
	lda     _Y1_Top
	jsr     _getCollisionIndex
	sta     _corner
	stx     _corner+1
;
; if (testColl[corner] != 0)
;
	lda     #<(_testColl)
	sta     ptr1
	lda     #>(_testColl)
	clc
	adc     _corner+1
	sta     ptr1+1
	ldy     _corner
	lda     (ptr1),y
	beq     L0505
;
; player_x = (player_x & 0xf8) + 7; // if collision, realign
;
	lda     _player_x
	and     #$F8
	clc
	adc     #$07
	sta     _player_x
;
; corner = getCollisionIndex(X1_Left_Side, Y1_Bottom); // bottom left
;
L0505:	lda     _X1_Left_Side
	jsr     pusha
	lda     _Y1_Bottom
	jsr     _getCollisionIndex
	sta     _corner
	stx     _corner+1
;
; if (testColl[corner] != 0)
;
	lda     #<(_testColl)
	sta     ptr1
	lda     #>(_testColl)
	clc
	adc     _corner+1
	sta     ptr1+1
	ldy     _corner
	lda     (ptr1),y
	beq     L0510
;
; player_x = (player_x & 0xf8) + 7; // if collision, realign
;
	lda     _player_x
	and     #$F8
	clc
	adc     #$07
L05A1:	sta     _player_x
;
; }
;
L0510:	rts

.endproc

; ---------------------------------------------------------------
; void __near__ collide_Check_UD (void)
; ---------------------------------------------------------------

.segment	"CODE"

.proc	_collide_Check_UD: near

.segment	"CODE"

;
; four_Sides();
;
	jsr     _four_Sides
;
; if ((pad & PAD_DOWN) != 0){ // down first
;
	lda     _pad
	and     #$20
	beq     L05A4
;
; corner = getCollisionIndex(X1_Right_Side, Y1_Bottom); // bottom right
;
	lda     _X1_Right_Side
	jsr     pusha
	lda     _Y1_Bottom
	jsr     _getCollisionIndex
	sta     _corner
	stx     _corner+1
;
; if (testColl[corner] != 0)
;
	lda     #<(_testColl)
	sta     ptr1
	lda     #>(_testColl)
	clc
	adc     _corner+1
	sta     ptr1+1
	ldy     _corner
	lda     (ptr1),y
	beq     L0521
;
; player_y = (player_y & 0xf8); // if collision, realign
;
	lda     _player_y
	and     #$F8
	sta     _player_y
;
; corner = getCollisionIndex(X1_Left_Side, Y1_Bottom); // bottom left
;
L0521:	lda     _X1_Left_Side
	jsr     pusha
	lda     _Y1_Bottom
	jsr     _getCollisionIndex
	sta     _corner
	stx     _corner+1
;
; if (testColl[corner] != 0)
;
	lda     #<(_testColl)
	sta     ptr1
	lda     #>(_testColl)
	clc
	adc     _corner+1
	sta     ptr1+1
	ldy     _corner
	lda     (ptr1),y
	beq     L0545
;
; player_y = (player_y & 0xf8); // if collision, realign
;
	lda     _player_y
	and     #$F8
;
; else if ((pad & PAD_UP) != 0) { //or up
;
	jmp     L05A3
L05A4:	lda     _pad
	and     #$10
	beq     L0545
;
; corner = getCollisionIndex(X1_Right_Side, Y1_Top); // top right
;
	lda     _X1_Right_Side
	jsr     pusha
	lda     _Y1_Top
	jsr     _getCollisionIndex
	sta     _corner
	stx     _corner+1
;
; if (testColl[corner] != 0)
;
	lda     #<(_testColl)
	sta     ptr1
	lda     #>(_testColl)
	clc
	adc     _corner+1
	sta     ptr1+1
	ldy     _corner
	lda     (ptr1),y
	beq     L053A
;
; player_y = (player_y & 0xf8) + 7; // if collision, realign
;
	lda     _player_y
	and     #$F8
	clc
	adc     #$07
	sta     _player_y
;
; corner = getCollisionIndex(X1_Left_Side, Y1_Top);  // top left
;
L053A:	lda     _X1_Left_Side
	jsr     pusha
	lda     _Y1_Top
	jsr     _getCollisionIndex
	sta     _corner
	stx     _corner+1
;
; if (testColl[corner] != 0)
;
	lda     #<(_testColl)
	sta     ptr1
	lda     #>(_testColl)
	clc
	adc     _corner+1
	sta     ptr1+1
	ldy     _corner
	lda     (ptr1),y
	beq     L0545
;
; player_y = (player_y & 0xf8) + 7; // if collision, realign
;
	lda     _player_y
	and     #$F8
	clc
	adc     #$07
L05A3:	sta     _player_y
;
; }
;
L0545:	rts

.endproc

; ---------------------------------------------------------------
; void __near__ checkCollision (void)
; ---------------------------------------------------------------

.segment	"CODE"

.proc	_checkCollision: near

.segment	"CODE"

;
; unsigned char collIndex = ((player_y >> 3) << 3) | ( player_x >> 3);
;
	lda     _player_y
	lsr     a
	lsr     a
	lsr     a
	asl     a
	asl     a
	asl     a
	sta     ptr1
	lda     _player_x
	lsr     a
	lsr     a
	lsr     a
	ora     ptr1
	jsr     pusha
;
; if ( testColl[collIndex] ) {
;
	ldy     #$00
	lda     (sp),y
	tay
	lda     _testColl,y
	beq     L05A5
;
; colliding = 1;
;
	lda     #$01
;
; colliding = 0;
;
L05A5:	sta     _colliding
;
; }
;
	jmp     incsp1

.endproc

; ---------------------------------------------------------------
; void __near__ main (void)
; ---------------------------------------------------------------

.segment	"CODE"

.proc	_main: near

.segment	"CODE"

;
; colliding = 0;
;
	lda     #$00
	sta     _colliding
;
; pal_bg(palBG);
;
	lda     #<(_palBG)
	ldx     #>(_palBG)
	jsr     _pal_bg
;
; vram_adr(NAMETABLE_A); //unpack nametable into VRAM
;
	ldx     #$20
	lda     #$00
	jsr     _vram_adr
;
; vram_unrle(test_nam); 
;
	lda     #<(_test_nam)
	ldx     #>(_test_nam)
	jsr     _vram_unrle
;
; ppu_on_all(); //enable rendering
;
	jsr     _ppu_on_all
;
; player_x = 52;
;
	lda     #$34
	sta     _player_x
;
; player_y = 100;
;
	lda     #$64
	sta     _player_y
;
; touch = 0; // collision flag
;
	lda     #$00
	sta     _touch
;
; frame = 0; // frame counter
;
	sta     _frame
;
; pal_spr(palSprites);
;
	lda     #<(_palSprites)
	ldx     #>(_palSprites)
	jsr     _pal_spr
;
; ppu_wait_frame(); // wait for next TV frame
;
L056E:	jsr     _ppu_wait_frame
;
; spr = 0;
;
	lda     #$00
	sta     _spr
;
; i = 0;
;
	sta     _i
;
; spr = oam_meta_spr(player_x, player_y, spr, testSprite);
;
	jsr     decsp3
	lda     _player_x
	ldy     #$02
	sta     (sp),y
	lda     _player_y
	dey
	sta     (sp),y
	lda     _spr
	dey
	sta     (sp),y
	lda     #<(_testSprite)
	ldx     #>(_testSprite)
	jsr     _oam_meta_spr
	sta     _spr
;
; pad = pad_poll(i);
;
	lda     _i
	jsr     _pad_poll
	sta     _pad
;
; if(pad&PAD_LEFT  && player_x >  0)  player_x -= 2;
;
	and     #$40
	beq     L05AA
	lda     _player_x
	beq     L05AA
	sec
	sbc     #$02
	sta     _player_x
;
; if(pad&PAD_RIGHT && player_x < 240) player_x += 2;
;
L05AA:	lda     _pad
	and     #$80
	beq     L0586
	lda     _player_x
	cmp     #$F0
	bcs     L0586
	lda     #$02
	clc
	adc     _player_x
	sta     _player_x
;
; collide_Check_LR();
;
L0586:	jsr     _collide_Check_LR
;
; if(pad&PAD_UP    && player_y > 0)   player_y -= 2;
;
	lda     _pad
	and     #$10
	beq     L05B1
	lda     _player_y
	beq     L05B1
	sec
	sbc     #$02
	sta     _player_y
;
; if(pad&PAD_DOWN  && player_y < 220) player_y += 2;
;
L05B1:	lda     _pad
	and     #$20
	beq     L0593
	lda     _player_y
	cmp     #$DC
	bcs     L0593
	lda     #$02
	clc
	adc     _player_y
	sta     _player_y
;
; collide_Check_UD();
;
L0593:	jsr     _collide_Check_UD
;
; ++frame;
;
	inc     _frame
;
; while(1)
;
	jmp     L056E

.endproc

