;
; File generated by cc65 v 2.16 - Git N/A
;
	.fopt		compiler,"cc65 v 2.16 - Git N/A"
	.setcpu		"6502"
	.smart		on
	.autoimport	on
	.case		on
	.debuginfo	off
	.importzp	sp, sreg, regsave, regbank
	.importzp	tmp1, tmp2, tmp3, tmp4, ptr1, ptr2, ptr3, ptr4
	.macpack	longbranch
	.forceimport	__STARTUP__
	.import		_memcpy
	.import		_pal_bg
	.import		_pal_spr
	.import		_ppu_wait_frame
	.import		_ppu_on_all
	.import		_oam_meta_spr
	.import		_pad_poll
	.import		_vram_adr
	.import		_vram_unrle
	.export		_test_nam
	.export		_collisionMap
	.export		_oam_off
	.export		_enemyData
	.import		_paldat
	.export		_playerFrames
	.export		_enemyFrames
	.export		_playerSpriteData
	.export		_enemySpriteDataTemplate
	.export		_setSpriteFrame
	.export		_setSpritePalette
	.export		_setSpritePriority
	.export		_flipSprite
	.export		_four_Sides
	.export		_getCollisionIndex
	.export		_collideCheckVertical
	.export		_collideCheckHorizontal
	.export		_bgVertCollideCheck
	.export		_bgHorizCollideCheck
	.export		_updateEnemies
	.export		_playerEnemyCollideCheck
	.export		_spriteCount
	.export		_setupMap
	.export		_updatePlayerVerticalMovement
	.export		_playerMoveHorizontal
	.export		_updateEnemySprites
	.export		_updatePlayerSprite
	.export		_main

.segment	"DATA"

.segment	"ZEROPAGE"
.segment	"DATA"
_enemyInitX:
	.byte	$96
_enemyInitY:
	.byte	$32
_enemySpriteCount:
	.byte	$00
_playerFrame:
	.byte	$00
_playerFalling:
	.byte	$00
_playerJumping:
	.byte	$00
_playerJumpHeight:
	.byte	$00
_playerJumpCounter:
	.byte	$00
_playerVertVel:
	.byte	$00
_playerVertAccel:
	.byte	$00
_spriteFlickerIndex:
	.byte	$00
_sprPriorityToggle:
	.byte	$00
_playerSpriteData:
	.byte	$00
	.byte	$00
	.byte	$08
	.byte	$03
	.byte	$08
	.byte	$00
	.byte	$09
	.byte	$03
	.byte	$00
	.byte	$08
	.byte	$18
	.byte	$03
	.byte	$08
	.byte	$08
	.byte	$19
	.byte	$03
	.byte	$80

.segment	"RODATA"

_test_nam:
	.byte	$01
	.byte	$40
	.byte	$01
	.byte	$40
	.byte	$41
	.byte	$01
	.byte	$09
	.byte	$00
	.byte	$41
	.byte	$01
	.byte	$02
	.byte	$00
	.byte	$01
	.byte	$0E
	.byte	$41
	.byte	$40
	.byte	$40
	.byte	$00
	.byte	$41
	.byte	$00
	.byte	$01
	.byte	$09
	.byte	$41
	.byte	$00
	.byte	$41
	.byte	$00
	.byte	$01
	.byte	$0D
	.byte	$41
	.byte	$40
	.byte	$40
	.byte	$00
	.byte	$41
	.byte	$00
	.byte	$01
	.byte	$09
	.byte	$41
	.byte	$00
	.byte	$00
	.byte	$41
	.byte	$00
	.byte	$01
	.byte	$0C
	.byte	$41
	.byte	$40
	.byte	$40
	.byte	$00
	.byte	$01
	.byte	$0A
	.byte	$41
	.byte	$41
	.byte	$00
	.byte	$01
	.byte	$0F
	.byte	$41
	.byte	$40
	.byte	$40
	.byte	$00
	.byte	$01
	.byte	$10
	.byte	$41
	.byte	$00
	.byte	$01
	.byte	$0A
	.byte	$41
	.byte	$40
	.byte	$40
	.byte	$00
	.byte	$01
	.byte	$1C
	.byte	$41
	.byte	$40
	.byte	$40
	.byte	$00
	.byte	$01
	.byte	$06
	.byte	$40
	.byte	$01
	.byte	$0F
	.byte	$41
	.byte	$41
	.byte	$00
	.byte	$01
	.byte	$03
	.byte	$41
	.byte	$40
	.byte	$40
	.byte	$00
	.byte	$01
	.byte	$1C
	.byte	$41
	.byte	$40
	.byte	$40
	.byte	$50
	.byte	$00
	.byte	$01
	.byte	$13
	.byte	$41
	.byte	$00
	.byte	$01
	.byte	$06
	.byte	$41
	.byte	$40
	.byte	$40
	.byte	$50
	.byte	$00
	.byte	$01
	.byte	$1B
	.byte	$41
	.byte	$40
	.byte	$40
	.byte	$50
	.byte	$00
	.byte	$01
	.byte	$1B
	.byte	$41
	.byte	$40
	.byte	$40
	.byte	$50
	.byte	$00
	.byte	$01
	.byte	$1B
	.byte	$41
	.byte	$40
	.byte	$40
	.byte	$50
	.byte	$00
	.byte	$01
	.byte	$03
	.byte	$40
	.byte	$01
	.byte	$05
	.byte	$41
	.byte	$41
	.byte	$00
	.byte	$01
	.byte	$05
	.byte	$40
	.byte	$01
	.byte	$05
	.byte	$00
	.byte	$01
	.byte	$04
	.byte	$40
	.byte	$40
	.byte	$00
	.byte	$01
	.byte	$1D
	.byte	$40
	.byte	$40
	.byte	$00
	.byte	$01
	.byte	$1D
	.byte	$40
	.byte	$40
	.byte	$00
	.byte	$01
	.byte	$1D
	.byte	$40
	.byte	$40
	.byte	$00
	.byte	$01
	.byte	$19
	.byte	$41
	.byte	$41
	.byte	$00
	.byte	$00
	.byte	$40
	.byte	$40
	.byte	$00
	.byte	$01
	.byte	$12
	.byte	$41
	.byte	$00
	.byte	$01
	.byte	$06
	.byte	$41
	.byte	$01
	.byte	$02
	.byte	$40
	.byte	$40
	.byte	$00
	.byte	$40
	.byte	$01
	.byte	$04
	.byte	$41
	.byte	$00
	.byte	$01
	.byte	$02
	.byte	$40
	.byte	$01
	.byte	$09
	.byte	$00
	.byte	$01
	.byte	$03
	.byte	$40
	.byte	$01
	.byte	$04
	.byte	$00
	.byte	$40
	.byte	$40
	.byte	$00
	.byte	$01
	.byte	$1D
	.byte	$40
	.byte	$40
	.byte	$00
	.byte	$01
	.byte	$1D
	.byte	$40
	.byte	$40
	.byte	$00
	.byte	$01
	.byte	$1D
	.byte	$40
	.byte	$40
	.byte	$00
	.byte	$01
	.byte	$1D
	.byte	$40
	.byte	$40
	.byte	$00
	.byte	$01
	.byte	$02
	.byte	$40
	.byte	$01
	.byte	$04
	.byte	$00
	.byte	$01
	.byte	$03
	.byte	$40
	.byte	$01
	.byte	$05
	.byte	$00
	.byte	$01
	.byte	$03
	.byte	$40
	.byte	$01
	.byte	$04
	.byte	$00
	.byte	$01
	.byte	$02
	.byte	$40
	.byte	$40
	.byte	$00
	.byte	$00
	.byte	$41
	.byte	$01
	.byte	$05
	.byte	$00
	.byte	$01
	.byte	$03
	.byte	$41
	.byte	$01
	.byte	$05
	.byte	$00
	.byte	$01
	.byte	$03
	.byte	$41
	.byte	$01
	.byte	$06
	.byte	$00
	.byte	$40
	.byte	$40
	.byte	$00
	.byte	$01
	.byte	$04
	.byte	$41
	.byte	$41
	.byte	$00
	.byte	$01
	.byte	$16
	.byte	$40
	.byte	$01
	.byte	$40
	.byte	$00
	.byte	$01
	.byte	$3E
	.byte	$00
	.byte	$01
	.byte	$00
_collisionMap:
	.byte	$01
	.byte	$01
	.byte	$01
	.byte	$01
	.byte	$01
	.byte	$01
	.byte	$01
	.byte	$01
	.byte	$01
	.byte	$01
	.byte	$01
	.byte	$01
	.byte	$01
	.byte	$01
	.byte	$01
	.byte	$01
	.byte	$01
	.byte	$01
	.byte	$01
	.byte	$01
	.byte	$01
	.byte	$01
	.byte	$01
	.byte	$01
	.byte	$01
	.byte	$01
	.byte	$01
	.byte	$01
	.byte	$01
	.byte	$01
	.byte	$01
	.byte	$01
	.byte	$01
	.byte	$01
	.byte	$01
	.byte	$01
	.byte	$01
	.byte	$01
	.byte	$01
	.byte	$01
	.byte	$01
	.byte	$01
	.byte	$01
	.byte	$01
	.byte	$01
	.byte	$01
	.byte	$01
	.byte	$01
	.byte	$01
	.byte	$01
	.byte	$01
	.byte	$01
	.byte	$01
	.byte	$01
	.byte	$01
	.byte	$01
	.byte	$01
	.byte	$01
	.byte	$01
	.byte	$01
	.byte	$01
	.byte	$01
	.byte	$01
	.byte	$01
	.byte	$01
	.byte	$00
	.byte	$00
	.byte	$00
	.byte	$00
	.byte	$00
	.byte	$00
	.byte	$00
	.byte	$00
	.byte	$00
	.byte	$00
	.byte	$00
	.byte	$00
	.byte	$00
	.byte	$00
	.byte	$00
	.byte	$00
	.byte	$00
	.byte	$00
	.byte	$00
	.byte	$00
	.byte	$00
	.byte	$00
	.byte	$00
	.byte	$00
	.byte	$00
	.byte	$00
	.byte	$00
	.byte	$00
	.byte	$00
	.byte	$00
	.byte	$01
	.byte	$01
	.byte	$00
	.byte	$00
	.byte	$00
	.byte	$00
	.byte	$00
	.byte	$00
	.byte	$00
	.byte	$00
	.byte	$00
	.byte	$00
	.byte	$00
	.byte	$00
	.byte	$00
	.byte	$00
	.byte	$00
	.byte	$00
	.byte	$00
	.byte	$00
	.byte	$00
	.byte	$00
	.byte	$00
	.byte	$00
	.byte	$00
	.byte	$00
	.byte	$00
	.byte	$00
	.byte	$00
	.byte	$00
	.byte	$00
	.byte	$00
	.byte	$01
	.byte	$01
	.byte	$00
	.byte	$00
	.byte	$00
	.byte	$00
	.byte	$00
	.byte	$00
	.byte	$00
	.byte	$00
	.byte	$00
	.byte	$00
	.byte	$00
	.byte	$00
	.byte	$00
	.byte	$00
	.byte	$00
	.byte	$00
	.byte	$00
	.byte	$00
	.byte	$00
	.byte	$00
	.byte	$00
	.byte	$00
	.byte	$00
	.byte	$00
	.byte	$00
	.byte	$00
	.byte	$00
	.byte	$00
	.byte	$00
	.byte	$00
	.byte	$01
	.byte	$01
	.byte	$00
	.byte	$00
	.byte	$00
	.byte	$00
	.byte	$00
	.byte	$00
	.byte	$00
	.byte	$00
	.byte	$00
	.byte	$00
	.byte	$00
	.byte	$00
	.byte	$00
	.byte	$00
	.byte	$00
	.byte	$00
	.byte	$00
	.byte	$00
	.byte	$00
	.byte	$00
	.byte	$00
	.byte	$00
	.byte	$00
	.byte	$00
	.byte	$00
	.byte	$00
	.byte	$00
	.byte	$00
	.byte	$00
	.byte	$00
	.byte	$01
	.byte	$01
	.byte	$00
	.byte	$00
	.byte	$00
	.byte	$00
	.byte	$00
	.byte	$00
	.byte	$00
	.byte	$00
	.byte	$00
	.byte	$00
	.byte	$00
	.byte	$00
	.byte	$00
	.byte	$00
	.byte	$00
	.byte	$00
	.byte	$04
	.byte	$00
	.byte	$00
	.byte	$00
	.byte	$00
	.byte	$00
	.byte	$00
	.byte	$00
	.byte	$00
	.byte	$00
	.byte	$00
	.byte	$00
	.byte	$00
	.byte	$00
	.byte	$01
	.byte	$01
	.byte	$00
	.byte	$00
	.byte	$00
	.byte	$00
	.byte	$00
	.byte	$00
	.byte	$02
	.byte	$00
	.byte	$00
	.byte	$00
	.byte	$00
	.byte	$00
	.byte	$00
	.byte	$00
	.byte	$00
	.byte	$00
	.byte	$00
	.byte	$00
	.byte	$00
	.byte	$00
	.byte	$00
	.byte	$00
	.byte	$00
	.byte	$02
	.byte	$00
	.byte	$00
	.byte	$00
	.byte	$00
	.byte	$00
	.byte	$00
	.byte	$01
	.byte	$01
	.byte	$00
	.byte	$00
	.byte	$00
	.byte	$00
	.byte	$00
	.byte	$00
	.byte	$00
	.byte	$01
	.byte	$01
	.byte	$01
	.byte	$01
	.byte	$01
	.byte	$01
	.byte	$01
	.byte	$01
	.byte	$01
	.byte	$01
	.byte	$01
	.byte	$01
	.byte	$01
	.byte	$01
	.byte	$01
	.byte	$01
	.byte	$00
	.byte	$00
	.byte	$00
	.byte	$00
	.byte	$00
	.byte	$00
	.byte	$00
	.byte	$01
	.byte	$01
	.byte	$00
	.byte	$00
	.byte	$00
	.byte	$00
	.byte	$00
	.byte	$00
	.byte	$00
	.byte	$00
	.byte	$00
	.byte	$00
	.byte	$00
	.byte	$00
	.byte	$00
	.byte	$00
	.byte	$00
	.byte	$00
	.byte	$00
	.byte	$00
	.byte	$00
	.byte	$00
	.byte	$00
	.byte	$00
	.byte	$00
	.byte	$00
	.byte	$00
	.byte	$00
	.byte	$00
	.byte	$00
	.byte	$00
	.byte	$00
	.byte	$01
	.byte	$01
	.byte	$00
	.byte	$00
	.byte	$00
	.byte	$00
	.byte	$00
	.byte	$00
	.byte	$00
	.byte	$00
	.byte	$00
	.byte	$00
	.byte	$00
	.byte	$00
	.byte	$00
	.byte	$00
	.byte	$00
	.byte	$00
	.byte	$00
	.byte	$00
	.byte	$00
	.byte	$00
	.byte	$00
	.byte	$00
	.byte	$00
	.byte	$00
	.byte	$00
	.byte	$00
	.byte	$00
	.byte	$00
	.byte	$00
	.byte	$00
	.byte	$01
	.byte	$01
	.byte	$00
	.byte	$00
	.byte	$00
	.byte	$00
	.byte	$00
	.byte	$00
	.byte	$00
	.byte	$00
	.byte	$00
	.byte	$00
	.byte	$00
	.byte	$00
	.byte	$00
	.byte	$00
	.byte	$00
	.byte	$00
	.byte	$00
	.byte	$00
	.byte	$00
	.byte	$00
	.byte	$00
	.byte	$00
	.byte	$00
	.byte	$00
	.byte	$00
	.byte	$00
	.byte	$00
	.byte	$00
	.byte	$00
	.byte	$00
	.byte	$01
	.byte	$01
	.byte	$00
	.byte	$00
	.byte	$00
	.byte	$00
	.byte	$00
	.byte	$00
	.byte	$00
	.byte	$03
	.byte	$00
	.byte	$00
	.byte	$00
	.byte	$00
	.byte	$00
	.byte	$00
	.byte	$00
	.byte	$00
	.byte	$00
	.byte	$00
	.byte	$00
	.byte	$00
	.byte	$00
	.byte	$04
	.byte	$00
	.byte	$00
	.byte	$00
	.byte	$00
	.byte	$00
	.byte	$00
	.byte	$00
	.byte	$00
	.byte	$01
	.byte	$01
	.byte	$00
	.byte	$00
	.byte	$00
	.byte	$00
	.byte	$02
	.byte	$00
	.byte	$00
	.byte	$00
	.byte	$00
	.byte	$00
	.byte	$00
	.byte	$02
	.byte	$00
	.byte	$00
	.byte	$00
	.byte	$00
	.byte	$00
	.byte	$00
	.byte	$02
	.byte	$00
	.byte	$00
	.byte	$00
	.byte	$00
	.byte	$00
	.byte	$00
	.byte	$02
	.byte	$00
	.byte	$00
	.byte	$00
	.byte	$00
	.byte	$01
	.byte	$01
	.byte	$00
	.byte	$00
	.byte	$00
	.byte	$00
	.byte	$00
	.byte	$01
	.byte	$01
	.byte	$01
	.byte	$01
	.byte	$01
	.byte	$01
	.byte	$00
	.byte	$00
	.byte	$00
	.byte	$00
	.byte	$00
	.byte	$00
	.byte	$00
	.byte	$00
	.byte	$01
	.byte	$01
	.byte	$01
	.byte	$01
	.byte	$01
	.byte	$01
	.byte	$00
	.byte	$00
	.byte	$00
	.byte	$00
	.byte	$00
	.byte	$01
	.byte	$01
	.byte	$00
	.byte	$00
	.byte	$00
	.byte	$00
	.byte	$00
	.byte	$00
	.byte	$00
	.byte	$00
	.byte	$00
	.byte	$00
	.byte	$00
	.byte	$00
	.byte	$00
	.byte	$00
	.byte	$00
	.byte	$00
	.byte	$00
	.byte	$00
	.byte	$00
	.byte	$00
	.byte	$00
	.byte	$00
	.byte	$00
	.byte	$00
	.byte	$00
	.byte	$00
	.byte	$00
	.byte	$00
	.byte	$00
	.byte	$00
	.byte	$01
	.byte	$01
	.byte	$00
	.byte	$00
	.byte	$00
	.byte	$00
	.byte	$00
	.byte	$00
	.byte	$00
	.byte	$00
	.byte	$00
	.byte	$00
	.byte	$00
	.byte	$00
	.byte	$00
	.byte	$00
	.byte	$00
	.byte	$00
	.byte	$00
	.byte	$00
	.byte	$00
	.byte	$00
	.byte	$00
	.byte	$00
	.byte	$00
	.byte	$00
	.byte	$00
	.byte	$00
	.byte	$00
	.byte	$00
	.byte	$00
	.byte	$00
	.byte	$01
	.byte	$01
	.byte	$00
	.byte	$00
	.byte	$00
	.byte	$00
	.byte	$00
	.byte	$00
	.byte	$00
	.byte	$00
	.byte	$00
	.byte	$00
	.byte	$00
	.byte	$00
	.byte	$00
	.byte	$00
	.byte	$00
	.byte	$00
	.byte	$00
	.byte	$00
	.byte	$00
	.byte	$00
	.byte	$00
	.byte	$00
	.byte	$00
	.byte	$00
	.byte	$00
	.byte	$00
	.byte	$00
	.byte	$00
	.byte	$00
	.byte	$00
	.byte	$01
	.byte	$01
	.byte	$00
	.byte	$00
	.byte	$00
	.byte	$00
	.byte	$00
	.byte	$00
	.byte	$00
	.byte	$00
	.byte	$00
	.byte	$00
	.byte	$00
	.byte	$00
	.byte	$00
	.byte	$00
	.byte	$04
	.byte	$00
	.byte	$00
	.byte	$00
	.byte	$00
	.byte	$00
	.byte	$00
	.byte	$00
	.byte	$00
	.byte	$00
	.byte	$00
	.byte	$04
	.byte	$00
	.byte	$00
	.byte	$00
	.byte	$00
	.byte	$01
	.byte	$01
	.byte	$02
	.byte	$00
	.byte	$00
	.byte	$00
	.byte	$00
	.byte	$00
	.byte	$02
	.byte	$00
	.byte	$00
	.byte	$02
	.byte	$00
	.byte	$00
	.byte	$00
	.byte	$00
	.byte	$00
	.byte	$00
	.byte	$00
	.byte	$00
	.byte	$00
	.byte	$00
	.byte	$02
	.byte	$00
	.byte	$00
	.byte	$02
	.byte	$00
	.byte	$00
	.byte	$00
	.byte	$00
	.byte	$00
	.byte	$02
	.byte	$01
	.byte	$01
	.byte	$00
	.byte	$01
	.byte	$01
	.byte	$01
	.byte	$01
	.byte	$01
	.byte	$00
	.byte	$00
	.byte	$00
	.byte	$00
	.byte	$01
	.byte	$01
	.byte	$01
	.byte	$01
	.byte	$01
	.byte	$01
	.byte	$01
	.byte	$01
	.byte	$01
	.byte	$01
	.byte	$00
	.byte	$00
	.byte	$00
	.byte	$00
	.byte	$01
	.byte	$01
	.byte	$01
	.byte	$01
	.byte	$01
	.byte	$00
	.byte	$01
	.byte	$01
	.byte	$00
	.byte	$00
	.byte	$00
	.byte	$00
	.byte	$00
	.byte	$00
	.byte	$00
	.byte	$00
	.byte	$00
	.byte	$00
	.byte	$00
	.byte	$00
	.byte	$00
	.byte	$00
	.byte	$00
	.byte	$00
	.byte	$00
	.byte	$00
	.byte	$00
	.byte	$00
	.byte	$00
	.byte	$00
	.byte	$00
	.byte	$00
	.byte	$00
	.byte	$00
	.byte	$00
	.byte	$00
	.byte	$00
	.byte	$00
	.byte	$01
	.byte	$01
	.byte	$00
	.byte	$00
	.byte	$00
	.byte	$00
	.byte	$00
	.byte	$00
	.byte	$00
	.byte	$00
	.byte	$00
	.byte	$00
	.byte	$00
	.byte	$00
	.byte	$00
	.byte	$00
	.byte	$00
	.byte	$00
	.byte	$00
	.byte	$00
	.byte	$00
	.byte	$00
	.byte	$00
	.byte	$00
	.byte	$00
	.byte	$00
	.byte	$00
	.byte	$00
	.byte	$00
	.byte	$00
	.byte	$00
	.byte	$00
	.byte	$01
	.byte	$01
	.byte	$00
	.byte	$00
	.byte	$00
	.byte	$00
	.byte	$00
	.byte	$00
	.byte	$00
	.byte	$00
	.byte	$00
	.byte	$00
	.byte	$00
	.byte	$00
	.byte	$00
	.byte	$00
	.byte	$00
	.byte	$00
	.byte	$00
	.byte	$00
	.byte	$00
	.byte	$00
	.byte	$00
	.byte	$00
	.byte	$00
	.byte	$00
	.byte	$00
	.byte	$00
	.byte	$00
	.byte	$00
	.byte	$00
	.byte	$00
	.byte	$01
	.byte	$01
	.byte	$00
	.byte	$00
	.byte	$02
	.byte	$00
	.byte	$00
	.byte	$00
	.byte	$00
	.byte	$00
	.byte	$02
	.byte	$00
	.byte	$00
	.byte	$02
	.byte	$00
	.byte	$00
	.byte	$00
	.byte	$00
	.byte	$00
	.byte	$00
	.byte	$02
	.byte	$00
	.byte	$00
	.byte	$02
	.byte	$00
	.byte	$00
	.byte	$00
	.byte	$00
	.byte	$00
	.byte	$02
	.byte	$00
	.byte	$00
	.byte	$01
	.byte	$01
	.byte	$00
	.byte	$00
	.byte	$00
	.byte	$01
	.byte	$01
	.byte	$01
	.byte	$01
	.byte	$01
	.byte	$00
	.byte	$00
	.byte	$00
	.byte	$00
	.byte	$01
	.byte	$01
	.byte	$01
	.byte	$01
	.byte	$01
	.byte	$01
	.byte	$00
	.byte	$00
	.byte	$00
	.byte	$00
	.byte	$01
	.byte	$01
	.byte	$01
	.byte	$01
	.byte	$01
	.byte	$00
	.byte	$00
	.byte	$00
	.byte	$01
	.byte	$01
	.byte	$00
	.byte	$00
	.byte	$00
	.byte	$00
	.byte	$00
	.byte	$00
	.byte	$00
	.byte	$00
	.byte	$00
	.byte	$00
	.byte	$00
	.byte	$00
	.byte	$00
	.byte	$00
	.byte	$04
	.byte	$00
	.byte	$00
	.byte	$00
	.byte	$00
	.byte	$00
	.byte	$00
	.byte	$00
	.byte	$00
	.byte	$00
	.byte	$00
	.byte	$00
	.byte	$00
	.byte	$00
	.byte	$00
	.byte	$00
	.byte	$01
	.byte	$01
	.byte	$00
	.byte	$00
	.byte	$00
	.byte	$00
	.byte	$00
	.byte	$00
	.byte	$00
	.byte	$00
	.byte	$00
	.byte	$00
	.byte	$00
	.byte	$00
	.byte	$00
	.byte	$00
	.byte	$00
	.byte	$00
	.byte	$00
	.byte	$00
	.byte	$00
	.byte	$00
	.byte	$00
	.byte	$00
	.byte	$00
	.byte	$00
	.byte	$00
	.byte	$00
	.byte	$00
	.byte	$00
	.byte	$00
	.byte	$00
	.byte	$01
	.byte	$01
	.byte	$01
	.byte	$01
	.byte	$01
	.byte	$01
	.byte	$01
	.byte	$01
	.byte	$01
	.byte	$01
	.byte	$01
	.byte	$01
	.byte	$01
	.byte	$01
	.byte	$01
	.byte	$01
	.byte	$01
	.byte	$01
	.byte	$01
	.byte	$01
	.byte	$01
	.byte	$01
	.byte	$01
	.byte	$01
	.byte	$01
	.byte	$01
	.byte	$01
	.byte	$01
	.byte	$01
	.byte	$01
	.byte	$01
	.byte	$01
	.byte	$01
	.byte	$01
	.byte	$01
	.byte	$01
	.byte	$01
	.byte	$01
	.byte	$01
	.byte	$01
	.byte	$01
	.byte	$01
	.byte	$01
	.byte	$01
	.byte	$01
	.byte	$01
	.byte	$01
	.byte	$01
	.byte	$01
	.byte	$01
	.byte	$01
	.byte	$01
	.byte	$01
	.byte	$01
	.byte	$01
	.byte	$01
	.byte	$01
	.byte	$01
	.byte	$01
	.byte	$01
	.byte	$01
	.byte	$01
	.byte	$01
	.byte	$01
	.byte	$01
_playerFrames:
	.byte	$08
	.byte	$09
	.byte	$18
	.byte	$19
	.byte	$28
	.byte	$29
	.byte	$38
	.byte	$39
_enemyFrames:
	.byte	$06
	.byte	$07
	.byte	$16
	.byte	$17
	.byte	$26
	.byte	$27
	.byte	$36
	.byte	$37
_enemySpriteDataTemplate:
	.byte	$00
	.byte	$00
	.byte	$00
	.byte	$03
	.byte	$08
	.byte	$00
	.byte	$00
	.byte	$03
	.byte	$00
	.byte	$08
	.byte	$00
	.byte	$03
	.byte	$08
	.byte	$08
	.byte	$00
	.byte	$03
	.byte	$80

.segment	"BSS"

.segment	"ZEROPAGE"
.segment	"BSS"
.segment	"ZEROPAGE"
_oam_off:
	.res	1,$00
.segment	"BSS"
_player_x:
	.res	1,$00
.segment	"BSS"
_player_y:
	.res	1,$00
.segment	"BSS"
_playerDir:
	.res	1,$00
.segment	"BSS"
_enemy_x:
	.res	1,$00
.segment	"BSS"
_enemy_y:
	.res	1,$00
.segment	"BSS"
_leftSide:
	.res	1,$00
.segment	"BSS"
_rightSide:
	.res	1,$00
.segment	"BSS"
_topSide:
	.res	1,$00
.segment	"BSS"
_bottomSide:
	.res	1,$00
.segment	"BSS"
_testCorner:
	.res	2,$00
.segment	"BSS"
_i:
	.res	1,$00
.segment	"BSS"
_pad:
	.res	1,$00
.segment	"BSS"
_spr:
	.res	1,$00
.segment	"BSS"
_touch:
	.res	1,$00
.segment	"BSS"
_frame:
	.res	1,$00
.segment	"BSS"
_playerEnemyColliding:
	.res	1,$00
.segment	"BSS"
_numEnemies:
	.res	1,$00
.segment	"BSS"
_jumpIteration:
	.res	1,$00
.segment	"BSS"
_X1_Right_Side:
	.res	1,$00
.segment	"BSS"
_X1_Left_Side:
	.res	1,$00
.segment	"BSS"
_Y1_Bottom:
	.res	1,$00
.segment	"BSS"
_Y1_Top:
	.res	1,$00
.segment	"BSS"
_enemyData:
	.res	80,$00
.segment	"BSS"
_enemySpriteData:
	.res	170,$00
.segment	"BSS"
_palSprites:
	.res	4,$00
.segment	"BSS"
_palBG:
	.res	4,$00

; ---------------------------------------------------------------
; void __near__ __fastcall__ setSpriteFrame (__near__ unsigned char *, __near__ const unsigned char *)
; ---------------------------------------------------------------

.segment	"CODE"

.proc	_setSpriteFrame: near

.segment	"CODE"

;
; void __fastcall__ setSpriteFrame(u8 *sprite, const u8 *frame) {
;
	jsr     pushax
;
; sprite[2] = frame[0];
;
	ldy     #$05
	jsr     pushwysp
	ldy     #$03
	lda     (sp),y
	sta     ptr1+1
	dey
	lda     (sp),y
	sta     ptr1
	ldy     #$00
	lda     (ptr1),y
	ldy     #$02
	jsr     staspidx
;
; sprite[6] = frame[1];
;
	ldy     #$05
	jsr     pushwysp
	ldy     #$03
	lda     (sp),y
	sta     ptr1+1
	dey
	lda     (sp),y
	sta     ptr1
	dey
	lda     (ptr1),y
	ldy     #$06
	jsr     staspidx
;
; sprite[10] = frame[2];
;
	ldy     #$05
	jsr     pushwysp
	ldy     #$03
	lda     (sp),y
	sta     ptr1+1
	dey
	lda     (sp),y
	sta     ptr1
	lda     (ptr1),y
	ldy     #$0A
	jsr     staspidx
;
; sprite[14] = frame[3];
;
	ldy     #$05
	jsr     pushwysp
	ldy     #$03
	lda     (sp),y
	sta     ptr1+1
	dey
	lda     (sp),y
	sta     ptr1
	iny
	lda     (ptr1),y
	ldy     #$0E
	jsr     staspidx
;
; }
;
	jmp     incsp4

.endproc

; ---------------------------------------------------------------
; void __near__ __fastcall__ setSpritePalette (__near__ unsigned char *, unsigned char)
; ---------------------------------------------------------------

.segment	"CODE"

.proc	_setSpritePalette: near

.segment	"CODE"

;
; void __fastcall__ setSpritePalette(u8 *sprite, u8 palette) {
;
	jsr     pusha
;
; for ( i = 3; i <= 15; i = i + 4 ) {
;
	jsr     decsp1
	lda     #$03
	ldy     #$00
L07F5:	sta     (sp),y
	cmp     #$10
	bcs     L053C
;
; sprite[i] &= ~(0x3);
;
	lda     (sp),y
	clc
	ldy     #$02
	adc     (sp),y
	sta     ptr1
	lda     #$00
	iny
	adc     (sp),y
	sta     ptr1+1
	ldy     #$00
	lda     (ptr1),y
	and     #$FC
	sta     (ptr1),y
;
; sprite[i] |= palette;
;
	lda     (sp),y
	clc
	ldy     #$02
	adc     (sp),y
	pha
	lda     #$00
	iny
	adc     (sp),y
	tax
	pla
	jsr     pushax
	sta     ptr1
	stx     ptr1+1
	ldy     #$00
	lda     (ptr1),y
	sta     ptr1
	ldy     #$03
	lda     (sp),y
	ora     ptr1
	ldy     #$00
	jsr     staspidx
;
; for ( i = 3; i <= 15; i = i + 4 ) {
;
	ldy     #$00
	lda     (sp),y
	clc
	adc     #$04
	jmp     L07F5
;
; }
;
L053C:	jmp     incsp4

.endproc

; ---------------------------------------------------------------
; void __near__ __fastcall__ setSpritePriority (__near__ unsigned char *, unsigned char)
; ---------------------------------------------------------------

.segment	"CODE"

.proc	_setSpritePriority: near

.segment	"CODE"

;
; void __fastcall__ setSpritePriority(u8 *sprite, u8 priority) {
;
	jsr     pusha
;
; if ( priority ) {
;
	ldy     #$00
	lda     (sp),y
	beq     L054D
;
; sprite[3] |= OAM_BEHIND;
;
	ldy     #$02
	lda     (sp),y
	sta     ptr1+1
	dey
	lda     (sp),y
	sta     ptr1
	ldy     #$03
	lda     (ptr1),y
	ora     #$20
	sta     (ptr1),y
;
; sprite[7] |= OAM_BEHIND;
;
	dey
	lda     (sp),y
	sta     ptr1+1
	dey
	lda     (sp),y
	sta     ptr1
	ldy     #$07
	lda     (ptr1),y
	ora     #$20
	sta     (ptr1),y
;
; sprite[11] |= OAM_BEHIND;
;
	ldy     #$02
	lda     (sp),y
	sta     ptr1+1
	dey
	lda     (sp),y
	sta     ptr1
	ldy     #$0B
	lda     (ptr1),y
	ora     #$20
	sta     (ptr1),y
;
; sprite[15] |= OAM_BEHIND;
;
	ldy     #$02
	lda     (sp),y
	sta     ptr1+1
	dey
	lda     (sp),y
	sta     ptr1
	ldy     #$0F
	lda     (ptr1),y
	ora     #$20
;
; } else {
;
	jmp     L07F6
;
; sprite[3] &= ~OAM_BEHIND;
;
L054D:	ldy     #$02
	lda     (sp),y
	sta     ptr1+1
	dey
	lda     (sp),y
	sta     ptr1
	ldy     #$03
	lda     (ptr1),y
	and     #$DF
	sta     (ptr1),y
;
; sprite[7] &= ~OAM_BEHIND;
;
	dey
	lda     (sp),y
	sta     ptr1+1
	dey
	lda     (sp),y
	sta     ptr1
	ldy     #$07
	lda     (ptr1),y
	and     #$DF
	sta     (ptr1),y
;
; sprite[11] &= ~OAM_BEHIND;
;
	ldy     #$02
	lda     (sp),y
	sta     ptr1+1
	dey
	lda     (sp),y
	sta     ptr1
	ldy     #$0B
	lda     (ptr1),y
	and     #$DF
	sta     (ptr1),y
;
; sprite[15] &= ~OAM_BEHIND;
;
	ldy     #$02
	lda     (sp),y
	sta     ptr1+1
	dey
	lda     (sp),y
	sta     ptr1
	ldy     #$0F
	lda     (ptr1),y
	and     #$DF
L07F6:	sta     (ptr1),y
;
; }
;
	jmp     incsp3

.endproc

; ---------------------------------------------------------------
; void __near__ __fastcall__ flipSprite (__near__ unsigned char *, unsigned char)
; ---------------------------------------------------------------

.segment	"CODE"

.proc	_flipSprite: near

.segment	"CODE"

;
; void __fastcall__ flipSprite(u8 *sprite, u8 flip) {
;
	jsr     pusha
;
; if ( flip ) {
;
	ldy     #$00
	lda     (sp),y
	jeq     L0569
;
; sprite[0] = 8;
;
	ldy     #$02
	lda     (sp),y
	sta     ptr1+1
	dey
	lda     (sp),y
	sta     ptr1
	lda     #$08
	dey
	sta     (ptr1),y
;
; sprite[3] |= OAM_FLIP_H;
;
	ldy     #$02
	lda     (sp),y
	sta     ptr1+1
	dey
	lda     (sp),y
	sta     ptr1
	ldy     #$03
	lda     (ptr1),y
	ora     #$40
	sta     (ptr1),y
;
; sprite[4] = 0;
;
	dey
	lda     (sp),y
	sta     ptr1+1
	dey
	lda     (sp),y
	sta     ptr1
	lda     #$00
	ldy     #$04
	sta     (ptr1),y
;
; sprite[7] |= OAM_FLIP_H;
;
	ldy     #$02
	lda     (sp),y
	sta     ptr1+1
	dey
	lda     (sp),y
	sta     ptr1
	ldy     #$07
	lda     (ptr1),y
	ora     #$40
	sta     (ptr1),y
;
; sprite[8] = 8;
;
	ldy     #$02
	lda     (sp),y
	sta     ptr1+1
	dey
	lda     (sp),y
	sta     ptr1
	lda     #$08
	tay
	sta     (ptr1),y
;
; sprite[11] |= OAM_FLIP_H;
;
	ldy     #$02
	lda     (sp),y
	sta     ptr1+1
	dey
	lda     (sp),y
	sta     ptr1
	ldy     #$0B
	lda     (ptr1),y
	ora     #$40
	sta     (ptr1),y
;
; sprite[12] = 0;
;
	ldy     #$02
	lda     (sp),y
	sta     ptr1+1
	dey
	lda     (sp),y
	sta     ptr1
	lda     #$00
	ldy     #$0C
	sta     (ptr1),y
;
; sprite[15] |= OAM_FLIP_H;
;
	ldy     #$02
	lda     (sp),y
	sta     ptr1+1
	dey
	lda     (sp),y
	sta     ptr1
	ldy     #$0F
	lda     (ptr1),y
	ora     #$40
;
; } else {
;
	jmp     L07F7
;
; sprite[0] = 0;
;
L0569:	ldy     #$02
	lda     (sp),y
	sta     ptr1+1
	dey
	lda     (sp),y
	sta     ptr1
	lda     #$00
	dey
	sta     (ptr1),y
;
; sprite[3] &= ~OAM_FLIP_H;
;
	ldy     #$02
	lda     (sp),y
	sta     ptr1+1
	dey
	lda     (sp),y
	sta     ptr1
	ldy     #$03
	lda     (ptr1),y
	and     #$BF
	sta     (ptr1),y
;
; sprite[4] = 8;
;
	dey
	lda     (sp),y
	sta     ptr1+1
	dey
	lda     (sp),y
	sta     ptr1
	lda     #$08
	ldy     #$04
	sta     (ptr1),y
;
; sprite[7] &= ~OAM_FLIP_H;
;
	ldy     #$02
	lda     (sp),y
	sta     ptr1+1
	dey
	lda     (sp),y
	sta     ptr1
	ldy     #$07
	lda     (ptr1),y
	and     #$BF
	sta     (ptr1),y
;
; sprite[8] = 0;
;
	ldy     #$02
	lda     (sp),y
	sta     ptr1+1
	dey
	lda     (sp),y
	sta     ptr1
	lda     #$00
	ldy     #$08
	sta     (ptr1),y
;
; sprite[11] &= ~OAM_FLIP_H;
;
	ldy     #$02
	lda     (sp),y
	sta     ptr1+1
	dey
	lda     (sp),y
	sta     ptr1
	ldy     #$0B
	lda     (ptr1),y
	and     #$BF
	sta     (ptr1),y
;
; sprite[12] = 8;
;
	ldy     #$02
	lda     (sp),y
	sta     ptr1+1
	dey
	lda     (sp),y
	sta     ptr1
	lda     #$08
	ldy     #$0C
	sta     (ptr1),y
;
; sprite[15] &= ~OAM_FLIP_H;  
;
	ldy     #$02
	lda     (sp),y
	sta     ptr1+1
	dey
	lda     (sp),y
	sta     ptr1
	ldy     #$0F
	lda     (ptr1),y
	and     #$BF
L07F7:	sta     (ptr1),y
;
; }
;
	jmp     incsp3

.endproc

; ---------------------------------------------------------------
; void __near__ __fastcall__ four_Sides (unsigned char, unsigned char)
; ---------------------------------------------------------------

.segment	"CODE"

.proc	_four_Sides: near

.segment	"CODE"

;
; void __fastcall__ four_Sides(u8 originX, u8 originY) {
;
	jsr     pusha
;
; if (originX < (255 - 1)){ // find the left side
;
	ldy     #$01
	lda     (sp),y
	cmp     #$FE
	bcs     L07FB
;
; X1_Left_Side = originX + 1;
;
	clc
	adc     #$01
;
; else {
;
	jmp     L07F8
;
; X1_Left_Side = 255;
;
L07FB:	lda     #$FF
L07F8:	sta     _X1_Left_Side
;
; if (originX < (255 - 15)){ // find the right side
;
	lda     (sp),y
	cmp     #$F0
	bcs     L07FC
;
; X1_Right_Side = originX + 15;
;
	clc
	adc     #$0F
;
; else {
;
	jmp     L07F9
;
; X1_Right_Side = 255;
;
L07FC:	lda     #$FF
L07F9:	sta     _X1_Right_Side
;
; Y1_Top = originY + 1; // our top is the same as the master Y
;
	dey
	lda     (sp),y
	clc
	adc     #$01
	sta     _Y1_Top
;
; if (originY < (255)){ // find the bottom side
;
	lda     (sp),y
	cmp     #$FF
	bcs     L07FD
;
; Y1_Bottom = originY + 16;
;
	clc
	adc     #$10
;
; else {
;
	jmp     L07FA
;
; Y1_Bottom = 255;
;
L07FD:	lda     #$FF
L07FA:	sta     _Y1_Bottom
;
; }
;
	jmp     incsp2

.endproc

; ---------------------------------------------------------------
; unsigned int __near__ __fastcall__ getCollisionIndex (unsigned char, unsigned char)
; ---------------------------------------------------------------

.segment	"CODE"

.proc	_getCollisionIndex: near

.segment	"CODE"

;
; u16 __fastcall__ getCollisionIndex(u8 screenX, u8 screenY) {
;
	jsr     pusha
;
; return ( screenX >> 3 ) + ( ( screenY >> 3 ) << 5);
;
	ldy     #$01
	ldx     #$00
	lda     (sp),y
	lsr     a
	lsr     a
	lsr     a
	sta     ptr1
	stx     ptr1+1
	lda     (sp,x)
	lsr     a
	lsr     a
	lsr     a
	jsr     aslax4
	stx     tmp1
	asl     a
	rol     tmp1
	clc
	adc     ptr1
	pha
	lda     tmp1
	adc     ptr1+1
	tax
	pla
;
; }
;
	jmp     incsp2

.endproc

; ---------------------------------------------------------------
; unsigned char __near__ __fastcall__ collideCheckVertical (unsigned char, unsigned char, unsigned char)
; ---------------------------------------------------------------

.segment	"CODE"

.proc	_collideCheckVertical: near

.segment	"CODE"

;
; u8 __fastcall__ collideCheckVertical(u8 originX, u8 originY, u8 direction) {
;
	jsr     pusha
;
; leftSide = originX + 1;
;
	ldy     #$02
	lda     (sp),y
	clc
	adc     #$01
	sta     _leftSide
;
; rightSide = originX + 15;
;
	lda     (sp),y
	clc
	adc     #$0F
	sta     _rightSide
;
; topSide = originY + 1;
;
	dey
	lda     (sp),y
	clc
	adc     #$01
	sta     _topSide
;
; bottomSide = originY + 17;
;
	lda     (sp),y
	clc
	adc     #$11
	sta     _bottomSide
;
; if ( ( (direction & PAD_A) != 0) ) {
;
	dey
	lda     (sp),y
	and     #$01
	beq     L0800
;
; testCorner = getCollisionIndex(rightSide, topSide);
;
	lda     _rightSide
	jsr     pusha
	lda     _topSide
	jsr     _getCollisionIndex
	sta     _testCorner
	stx     _testCorner+1
;
; if ( collisionMap[testCorner] == 0 ) {
;
	lda     #<(_collisionMap)
	sta     ptr1
	lda     #>(_collisionMap)
	clc
	adc     _testCorner+1
	sta     ptr1+1
	ldy     _testCorner
	lda     (ptr1),y
	bne     L05DD
;
; testCorner = getCollisionIndex(leftSide, topSide);
;
	lda     _leftSide
	jsr     pusha
	lda     _topSide
;
; } else if ( (direction & PAD_DOWN) != 0 ) {
;
	jmp     L0802
L0800:	lda     (sp),y
	and     #$20
	beq     L05DD
;
; testCorner = getCollisionIndex(rightSide, bottomSide);
;
	lda     _rightSide
	jsr     pusha
	lda     _bottomSide
	jsr     _getCollisionIndex
	sta     _testCorner
	stx     _testCorner+1
;
; if ( collisionMap[testCorner] == 0 ) {
;
	lda     #<(_collisionMap)
	sta     ptr1
	lda     #>(_collisionMap)
	clc
	adc     _testCorner+1
	sta     ptr1+1
	ldy     _testCorner
	lda     (ptr1),y
	bne     L05DD
;
; testCorner = getCollisionIndex(leftSide, bottomSide);
;
	lda     _leftSide
	jsr     pusha
	lda     _bottomSide
L0802:	jsr     _getCollisionIndex
	sta     _testCorner
	stx     _testCorner+1
;
; return collisionMap[testCorner];
;
L05DD:	lda     #<(_collisionMap)
	sta     ptr1
	lda     #>(_collisionMap)
	clc
	adc     _testCorner+1
	sta     ptr1+1
	ldy     _testCorner
	ldx     #$00
	lda     (ptr1),y
;
; }
;
	jmp     incsp3

.endproc

; ---------------------------------------------------------------
; unsigned char __near__ __fastcall__ collideCheckHorizontal (unsigned char, unsigned char, unsigned char)
; ---------------------------------------------------------------

.segment	"CODE"

.proc	_collideCheckHorizontal: near

.segment	"CODE"

;
; u8 __fastcall__ collideCheckHorizontal(u8 originX, u8 originY, u8 direction) {
;
	jsr     pusha
;
; leftSide = originX + 1;
;
	ldy     #$02
	lda     (sp),y
	clc
	adc     #$01
	sta     _leftSide
;
; rightSide = originX + 15;
;
	lda     (sp),y
	clc
	adc     #$0F
	sta     _rightSide
;
; topSide = originY + 1;
;
	dey
	lda     (sp),y
	clc
	adc     #$01
	sta     _topSide
;
; bottomSide = originY + 16;
;
	lda     (sp),y
	clc
	adc     #$10
	sta     _bottomSide
;
; if ( ( (direction & PAD_LEFT) != 0 ) ) {
;
	dey
	lda     (sp),y
	and     #$40
	beq     L0805
;
; testCorner = getCollisionIndex(leftSide, topSide);
;
	lda     _leftSide
	jsr     pusha
	lda     _topSide
	jsr     _getCollisionIndex
	sta     _testCorner
	stx     _testCorner+1
;
; if ( collisionMap[testCorner] == 0 ) {
;
	lda     #<(_collisionMap)
	sta     ptr1
	lda     #>(_collisionMap)
	clc
	adc     _testCorner+1
	sta     ptr1+1
	ldy     _testCorner
	lda     (ptr1),y
	bne     L060C
;
; testCorner = getCollisionIndex(leftSide, bottomSide);
;
	lda     _leftSide
;
; } else if ( (direction & PAD_RIGHT) != 0 ) {
;
	jmp     L0809
L0805:	lda     (sp),y
	and     #$80
	beq     L060C
;
; testCorner = getCollisionIndex(rightSide, topSide);
;
	lda     _rightSide
	jsr     pusha
	lda     _topSide
	jsr     _getCollisionIndex
	sta     _testCorner
	stx     _testCorner+1
;
; if ( collisionMap[testCorner] == 0 ) {
;
	lda     #<(_collisionMap)
	sta     ptr1
	lda     #>(_collisionMap)
	clc
	adc     _testCorner+1
	sta     ptr1+1
	ldy     _testCorner
	lda     (ptr1),y
	bne     L060C
;
; testCorner = getCollisionIndex(rightSide, bottomSide);
;
	lda     _rightSide
L0809:	jsr     pusha
	lda     _bottomSide
	jsr     _getCollisionIndex
	sta     _testCorner
	stx     _testCorner+1
;
; return collisionMap[testCorner];
;
L060C:	lda     #<(_collisionMap)
	sta     ptr1
	lda     #>(_collisionMap)
	clc
	adc     _testCorner+1
	sta     ptr1+1
	ldy     _testCorner
	ldx     #$00
	lda     (ptr1),y
;
; }
;
	jmp     incsp3

.endproc

; ---------------------------------------------------------------
; unsigned char __near__ __fastcall__ bgVertCollideCheck (__near__ unsigned char *, __near__ unsigned char *, unsigned char)
; ---------------------------------------------------------------

.segment	"CODE"

.proc	_bgVertCollideCheck: near

.segment	"CODE"

;
; u8 __fastcall__ bgVertCollideCheck(u8 *x, u8 *y, u8 dir) {
;
	jsr     pusha
;
; u8 colliding = collideCheckVertical(*x, *y, dir);
;
	jsr     decsp2
	ldy     #$06
	lda     (sp),y
	sta     ptr1+1
	dey
	lda     (sp),y
	sta     ptr1
	ldy     #$00
	lda     (ptr1),y
	iny
	sta     (sp),y
	ldy     #$04
	lda     (sp),y
	sta     ptr1+1
	dey
	lda     (sp),y
	sta     ptr1
	ldy     #$00
	lda     (ptr1),y
	sta     (sp),y
	ldy     #$02
	lda     (sp),y
	jsr     _collideCheckVertical
	jsr     pusha
;
; if ( colliding == 1 ) {
;
	ldx     #$00
	lda     (sp,x)
	cmp     #$01
	bne     L080C
;
; if ( dir & PAD_A ) {
;
	tay
	lda     (sp),y
	and     #$01
	beq     L0625
;
; *y = (*y & 0xf8) + 7;
;
	ldy     #$05
	jsr     pushwysp
	ldy     #$05
	lda     (sp),y
	sta     ptr1+1
	dey
	lda     (sp),y
	sta     ptr1
	ldy     #$00
	lda     (ptr1),y
	and     #$F8
	clc
	adc     #$07
;
; } else {
;
	jmp     L080A
;
; *y = (*y & 0xf8) - 1;
;
L0625:	ldy     #$05
	jsr     pushwysp
	ldy     #$05
	lda     (sp),y
	sta     ptr1+1
	dey
	lda     (sp),y
	sta     ptr1
	ldy     #$00
	lda     (ptr1),y
	and     #$F8
	sec
	sbc     #$01
L080A:	jsr     staspidx
;
; return colliding;
;
	ldx     #$00
L080C:	lda     (sp,x)
;
; }
;
	jmp     incsp6

.endproc

; ---------------------------------------------------------------
; void __near__ __fastcall__ bgHorizCollideCheck (__near__ unsigned char *, __near__ unsigned char *, unsigned char)
; ---------------------------------------------------------------

.segment	"CODE"

.proc	_bgHorizCollideCheck: near

.segment	"CODE"

;
; void __fastcall__ bgHorizCollideCheck(u8 *x, u8 *y, u8 dir) {
;
	jsr     pusha
;
; u8 colliding = collideCheckHorizontal(*x, *y, dir);
;
	jsr     decsp2
	ldy     #$06
	lda     (sp),y
	sta     ptr1+1
	dey
	lda     (sp),y
	sta     ptr1
	ldy     #$00
	lda     (ptr1),y
	iny
	sta     (sp),y
	ldy     #$04
	lda     (sp),y
	sta     ptr1+1
	dey
	lda     (sp),y
	sta     ptr1
	ldy     #$00
	lda     (ptr1),y
	sta     (sp),y
	ldy     #$02
	lda     (sp),y
	jsr     _collideCheckHorizontal
	jsr     pusha
;
; if ( colliding == 1 ) {
;
	ldy     #$00
	lda     (sp),y
	cmp     #$01
	bne     L063F
;
; if ( dir & PAD_LEFT ) {
;
	iny
	lda     (sp),y
	and     #$40
	beq     L080F
;
; *x = (*x & 0xf8) + 8;
;
	ldy     #$07
	jsr     pushwysp
	ldy     #$07
	lda     (sp),y
	sta     ptr1+1
	dey
	lda     (sp),y
	sta     ptr1
	ldy     #$00
	lda     (ptr1),y
	and     #$F8
	clc
	adc     #$08
;
; } else if ( dir & PAD_RIGHT ) {
;
	jmp     L080D
L080F:	lda     (sp),y
	and     #$80
	beq     L063F
;
; *x = (*x & 0xf8);
;
	ldy     #$07
	jsr     pushwysp
	ldy     #$07
	lda     (sp),y
	sta     ptr1+1
	dey
	lda     (sp),y
	sta     ptr1
	ldy     #$00
	lda     (ptr1),y
	and     #$F8
L080D:	jsr     staspidx
;
; }
;
L063F:	jmp     incsp6

.endproc

; ---------------------------------------------------------------
; void __near__ updateEnemies (void)
; ---------------------------------------------------------------

.segment	"CODE"

.proc	_updateEnemies: near

.segment	"BSS"

L0645:
	.res	1,$00
L0646:
	.res	1,$00
L0647:
	.res	1,$00

.segment	"CODE"

;
; for ( i = 0; i < numEnemies; i++ ) {
;
	lda     #$00
	sta     L0645
	tax
L0811:	lda     L0645
	cmp     _numEnemies
	bcc     L081B
;
; }
;
	rts
;
; vertCollide = collideCheckVertical(enemyData[i].x, enemyData[i].y + 1, PAD_DOWN);
;
L081B:	jsr     decsp2
	lda     L0645
	jsr     aslax2
	sta     ptr1
	txa
	clc
	adc     #>(_enemyData)
	sta     ptr1+1
	ldy     #<(_enemyData)
	lda     (ptr1),y
	ldy     #$01
	sta     (sp),y
	ldx     #$00
	lda     L0645
	jsr     aslax2
	clc
	adc     #<(_enemyData)
	sta     ptr1
	txa
	adc     #>(_enemyData)
	sta     ptr1+1
	lda     (ptr1),y
	clc
	adc     #$01
	dey
	sta     (sp),y
	lda     #$20
	jsr     _collideCheckVertical
	sta     L0646
;
; if ( vertCollide != TILE_ALLCOLLIDE ) {
;
	ldx     #$00
	lda     L0646
	cmp     #$01
	beq     L0812
;
; enemyData[i].y += 1;
;
	lda     L0645
	jsr     aslax2
	clc
	adc     #<(_enemyData)
	sta     ptr1
	txa
	adc     #>(_enemyData)
	sta     ptr1+1
	ldy     #$01
	lda     (ptr1),y
	clc
	adc     #$01
;
; } else {
;
	jmp     L0810
;
; if ( enemyData[i].direction == PAD_RIGHT ) {
;
L0812:	lda     L0645
	jsr     aslax2
	clc
	adc     #<(_enemyData)
	sta     ptr1
	txa
	adc     #>(_enemyData)
	sta     ptr1+1
	ldy     #$03
	ldx     #$00
	lda     (ptr1),y
	cmp     #$80
	jne     L0816
;
; enemyData[i].x += 1;
;
	lda     L0645
	jsr     aslax2
	clc
	adc     #<(_enemyData)
	sta     ptr1
	txa
	adc     #>(_enemyData)
	sta     ptr1+1
	ldy     #$00
	lda     (ptr1),y
	clc
	adc     #$01
	sta     (ptr1),y
;
; horizCollide = collideCheckHorizontal(enemyData[i].x, enemyData[i].y, PAD_RIGHT);
;
	jsr     decsp2
	ldx     #$00
	lda     L0645
	jsr     aslax2
	sta     ptr1
	txa
	clc
	adc     #>(_enemyData)
	sta     ptr1+1
	ldy     #<(_enemyData)
	lda     (ptr1),y
	ldy     #$01
	sta     (sp),y
	ldx     #$00
	lda     L0645
	jsr     aslax2
	clc
	adc     #<(_enemyData)
	sta     ptr1
	txa
	adc     #>(_enemyData)
	sta     ptr1+1
	lda     (ptr1),y
	dey
	sta     (sp),y
	lda     #$80
	jsr     _collideCheckHorizontal
	sta     L0647
;
; if ( ( horizCollide == TILE_ALLCOLLIDE ) || ( horizCollide == TILE_ENEMYCOLLIDE ) ) {
;
	ldx     #$00
	lda     L0647
	cmp     #$01
	beq     L0815
	cmp     #$02
	jne     L081A
;
; flipSprite(enemySpriteData[i], 0);
;
L0815:	lda     L0645
	jsr     pusha0
	lda     #$11
	jsr     tosmula0
	clc
	adc     #<(_enemySpriteData)
	tay
	txa
	adc     #>(_enemySpriteData)
	tax
	tya
	jsr     pushax
	lda     #$00
	jsr     _flipSprite
;
; enemyData[i].direction = PAD_LEFT;
;
	ldx     #$00
	lda     L0645
	jsr     aslax2
	clc
	adc     #<(_enemyData)
	sta     ptr1
	txa
	adc     #>(_enemyData)
	sta     ptr1+1
	ldx     #$00
	lda     #$40
	ldy     #$03
	sta     (ptr1),y
;
; } else {
;
	jmp     L081A
;
; enemyData[i].x -= 1;
;
L0816:	lda     L0645
	jsr     aslax2
	clc
	adc     #<(_enemyData)
	sta     ptr1
	txa
	adc     #>(_enemyData)
	sta     ptr1+1
	ldy     #$00
	lda     (ptr1),y
	sec
	sbc     #$01
	sta     (ptr1),y
;
; horizCollide = collideCheckHorizontal(enemyData[i].x, enemyData[i].y, PAD_LEFT);
;
	jsr     decsp2
	ldx     #$00
	lda     L0645
	jsr     aslax2
	sta     ptr1
	txa
	clc
	adc     #>(_enemyData)
	sta     ptr1+1
	ldy     #<(_enemyData)
	lda     (ptr1),y
	ldy     #$01
	sta     (sp),y
	ldx     #$00
	lda     L0645
	jsr     aslax2
	clc
	adc     #<(_enemyData)
	sta     ptr1
	txa
	adc     #>(_enemyData)
	sta     ptr1+1
	lda     (ptr1),y
	dey
	sta     (sp),y
	lda     #$40
	jsr     _collideCheckHorizontal
	sta     L0647
;
; if ( ( horizCollide == TILE_ALLCOLLIDE ) || ( horizCollide == TILE_ENEMYCOLLIDE ) ) {
;
	ldx     #$00
	lda     L0647
	cmp     #$01
	beq     L0819
	cmp     #$02
	bne     L081A
;
; flipSprite(enemySpriteData[i], 1);
;
L0819:	lda     L0645
	jsr     pusha0
	lda     #$11
	jsr     tosmula0
	clc
	adc     #<(_enemySpriteData)
	tay
	txa
	adc     #>(_enemySpriteData)
	tax
	tya
	jsr     pushax
	lda     #$01
	jsr     _flipSprite
;
; enemyData[i].direction = PAD_RIGHT;
;
	ldx     #$00
	lda     L0645
	jsr     aslax2
	clc
	adc     #<(_enemyData)
	sta     ptr1
	txa
	adc     #>(_enemyData)
	sta     ptr1+1
	lda     #$80
	ldy     #$03
L0810:	sta     (ptr1),y
;
; for ( i = 0; i < numEnemies; i++ ) {
;
	ldx     #$00
L081A:	lda     L0645
	clc
	adc     #$01
	sta     L0645
	jmp     L0811

.endproc

; ---------------------------------------------------------------
; void __near__ playerEnemyCollideCheck (void)
; ---------------------------------------------------------------

.segment	"CODE"

.proc	_playerEnemyCollideCheck: near

.segment	"BSS"

L068F:
	.res	1,$00
L0690:
	.res	1,$00
L0691:
	.res	1,$00
L0692:
	.res	1,$00
L0693:
	.res	1,$00

.segment	"CODE"

;
; playerEnemyColliding = 0;
;
	lda     #$00
	sta     _playerEnemyColliding
;
; for ( j = 0; j < numEnemies; ++j ) {
;
	sta     L0693
	tax
L081C:	lda     L0693
	cmp     _numEnemies
	bcc     L081E
;
; }
;
	rts
;
; enemyTop = enemyData[j].y + 2;
;
L081E:	jsr     aslax2
	clc
	adc     #<(_enemyData)
	sta     ptr1
	txa
	adc     #>(_enemyData)
	sta     ptr1+1
	ldy     #$01
	lda     (ptr1),y
	clc
	adc     #$02
	sta     L068F
;
; enemyBottom = enemyData[j].y + 14;
;
	ldx     #$00
	lda     L0693
	jsr     aslax2
	clc
	adc     #<(_enemyData)
	sta     ptr1
	txa
	adc     #>(_enemyData)
	sta     ptr1+1
	lda     (ptr1),y
	clc
	adc     #$0E
	sta     L0690
;
; enemyLeft = enemyData[j].x + 2;
;
	ldx     #$00
	lda     L0693
	jsr     aslax2
	sta     ptr1
	txa
	clc
	adc     #>(_enemyData)
	sta     ptr1+1
	ldy     #<(_enemyData)
	lda     (ptr1),y
	clc
	adc     #$02
	sta     L0691
;
; enemyRight = enemyData[j].x + 14;
;
	ldx     #$00
	lda     L0693
	jsr     aslax2
	sta     ptr1
	txa
	clc
	adc     #>(_enemyData)
	sta     ptr1+1
	ldy     #<(_enemyData)
	lda     (ptr1),y
	clc
	adc     #$0E
	sta     L0692
;
; if ( !( X1_Right_Side < enemyLeft  || 
;
	lda     _X1_Right_Side
	cmp     L0691
	bcc     L081D
;
; X1_Left_Side >= enemyRight || 
;
	lda     _X1_Left_Side
	cmp     L0692
	bcs     L081D
;
; Y1_Bottom <  enemyTop || 
;
	lda     _Y1_Bottom
	cmp     L068F
	bcc     L081D
;
; Y1_Top    >= enemyBottom ) ) {
;
	lda     _Y1_Top
	cmp     L0690
	bcs     L081D
	lda     #$00
	jmp     L06B1
L081D:	lda     #$01
L06B1:	jsr     bnega
	beq     L0698
;
; playerEnemyColliding = 1;
;
	lda     #$01
	sta     _playerEnemyColliding
;
; for ( j = 0; j < numEnemies; ++j ) {
;
L0698:	ldx     #$00
	inc     L0693
	jmp     L081C

.endproc

; ---------------------------------------------------------------
; unsigned char __near__ __fastcall__ spriteCount (void)
; ---------------------------------------------------------------

.segment	"CODE"

.proc	_spriteCount: near

.segment	"CODE"

;
; ++enemySpriteCount;
;
	inc     _enemySpriteCount
;
; if ( enemySpriteCount >= numEnemies ) {
;
	ldx     #$00
	lda     _enemySpriteCount
	cmp     _numEnemies
	bcc     L081F
;
; enemySpriteCount = 0;
;
	stx     _enemySpriteCount
;
; return enemySpriteCount;
;
L081F:	lda     _enemySpriteCount
;
; }
;
	rts

.endproc

; ---------------------------------------------------------------
; void __near__ setupMap (void)
; ---------------------------------------------------------------

.segment	"CODE"

.proc	_setupMap: near

.segment	"RODATA"

L06C0:
	.byte	$00
	.byte	$00
	.byte	$00
	.byte	$40

.segment	"CODE"

;
; u8 enemyIndex = 0;
;
	jsr     decsp2
	lda     #$00
	jsr     pusha
;
; u8 mapX = 0;
;
	jsr     pusha
;
; u8 mapY = 0;
;
	jsr     pusha
;
; u16 index = 0;
;
	jsr     push0
;
; enemy newEnemy = { 0, 0, 0, PAD_LEFT };
;
	jsr     decsp4
	ldy     #$03
L06C5:	lda     L06C0,y
	sta     (sp),y
	dey
	bpl     L06C5
;
; for ( index; index <= COLLISION_MAP_SIZE; ++index ) {
;
L06C6:	ldy     #$05
	lda     (sp),y
	cmp     #$03
	bne     L06CC
	dey
	lda     (sp),y
	cmp     #$C1
L06CC:	jcs     L06C7
;
; collByte = collisionMap[index];
;
	lda     #<(_collisionMap)
	ldy     #$04
	clc
	adc     (sp),y
	sta     ptr1
	lda     #>(_collisionMap)
	iny
	adc     (sp),y
	sta     ptr1+1
	ldy     #$00
	lda     (ptr1),y
	ldy     #$0A
	sta     (sp),y
;
; if ( collByte == TILE_PLAYERSTART ) {
;
	cmp     #$03
	bne     L0823
;
; player_x = mapX << 3;
;
	ldy     #$07
	lda     (sp),y
	asl     a
	asl     a
	asl     a
	sta     _player_x
;
; player_y = (mapY << 3) - 1;
;
	dey
	lda     (sp),y
	asl     a
	asl     a
	asl     a
	sec
	sbc     #$01
	sta     _player_y
;
; if ( ( collByte == TILE_ENEMY1START_RIGHT ) || ( collByte == TILE_ENEMY1START_LEFT ) ) {
;
	ldy     #$0A
L0823:	lda     (sp),y
	cmp     #$05
	beq     L0824
	cmp     #$04
	jne     L06D9
;
; enemyData[enemyIndex] = newEnemy;
;
L0824:	ldy     #$08
	ldx     #$00
	lda     (sp),y
	jsr     aslax2
	clc
	adc     #<(_enemyData)
	tay
	txa
	adc     #>(_enemyData)
	tax
	tya
	jsr     pushax
	ldy     #$05
	jsr     ldeaxysp
	ldy     #$00
	jsr     steaxspidx
;
; enemyData[enemyIndex].x = mapX << 3;
;
	ldy     #$08
	ldx     #$00
	lda     (sp),y
	jsr     aslax2
	clc
	adc     #<(_enemyData)
	sta     ptr1
	txa
	adc     #>(_enemyData)
	sta     ptr1+1
	dey
	lda     (sp),y
	asl     a
	asl     a
	asl     a
	ldy     #$00
	sta     (ptr1),y
;
; enemyData[enemyIndex].y = (mapY << 3) - 1;
;
	ldy     #$08
	ldx     #$00
	lda     (sp),y
	jsr     aslax2
	clc
	adc     #<(_enemyData)
	sta     ptr1
	txa
	adc     #>(_enemyData)
	sta     ptr1+1
	ldy     #$06
	lda     (sp),y
	asl     a
	asl     a
	asl     a
	sec
	sbc     #$01
	ldy     #$01
	sta     (ptr1),y
;
; enemyData[enemyIndex].direction = ( collByte == TILE_ENEMY1START_RIGHT ) ? PAD_RIGHT : PAD_LEFT;
;
	ldy     #$08
	ldx     #$00
	lda     (sp),y
	jsr     aslax2
	clc
	adc     #<(_enemyData)
	sta     ptr1
	txa
	adc     #>(_enemyData)
	sta     ptr1+1
	ldy     #$0A
	lda     (sp),y
	cmp     #$05
	bne     L0825
	lda     #$80
	jmp     L0826
L0825:	lda     #$40
L0826:	ldy     #$03
	sta     (ptr1),y
;
; for ( k = 0; k < ENEMY_DATA_SIZE; ++k ) {
;
	lda     #$00
	ldy     #$09
L0821:	sta     (sp),y
	cmp     #$11
	bcs     L06F2
;
; enemySpriteData[enemyIndex][k] = enemySpriteDataTemplate[k];
;
	dey
	lda     (sp),y
	jsr     pusha0
	lda     #$11
	jsr     tosmula0
	clc
	adc     #<(_enemySpriteData)
	sta     ptr1
	txa
	adc     #>(_enemySpriteData)
	sta     ptr1+1
	ldy     #$09
	lda     (sp),y
	clc
	adc     ptr1
	ldx     ptr1+1
	bcc     L0820
	inx
L0820:	jsr     pushax
	ldy     #$0B
	lda     (sp),y
	tay
	lda     _enemySpriteDataTemplate,y
	ldy     #$00
	jsr     staspidx
;
; for ( k = 0; k < ENEMY_DATA_SIZE; ++k ) {
;
	ldy     #$09
	clc
	lda     #$01
	adc     (sp),y
	jmp     L0821
;
; setSpriteFrame(enemySpriteData[enemyIndex], enemyFrames[0]);
;
L06F2:	dey
	lda     (sp),y
	jsr     pusha0
	lda     #$11
	jsr     tosmula0
	clc
	adc     #<(_enemySpriteData)
	tay
	txa
	adc     #>(_enemySpriteData)
	tax
	tya
	jsr     pushax
	lda     #<(_enemyFrames)
	ldx     #>(_enemyFrames)
	jsr     _setSpriteFrame
;
; ++enemyIndex;
;
	ldy     #$08
	clc
	lda     #$01
	adc     (sp),y
	sta     (sp),y
;
; ++mapX;
;
L06D9:	ldy     #$07
	clc
	lda     #$01
	adc     (sp),y
	sta     (sp),y
;
; if ( mapX >= 32 ) {
;
	cmp     #$20
	bcc     L06C8
;
; mapX = 0;
;
	lda     #$00
	sta     (sp),y
;
; ++mapY;
;
	dey
	clc
	lda     #$01
	adc     (sp),y
	sta     (sp),y
;
; for ( index; index <= COLLISION_MAP_SIZE; ++index ) {
;
L06C8:	ldy     #$04
	ldx     #$00
	lda     #$01
	jsr     addeqysp
	jmp     L06C6
;
; numEnemies = enemyIndex;
;
L06C7:	ldy     #$08
	lda     (sp),y
	sta     _numEnemies
;
; }
;
	ldy     #$0B
	jmp     addysp

.endproc

; ---------------------------------------------------------------
; void __near__ updatePlayerVerticalMovement (void)
; ---------------------------------------------------------------

.segment	"CODE"

.proc	_updatePlayerVerticalMovement: near

.segment	"CODE"

;
; if ( ( pad & PAD_A ) && ( player_y > 8 ) && ( !playerJumping ) ) {
;
	lda     _pad
	and     #$01
	beq     L082A
	lda     _player_y
	cmp     #$09
	bcc     L082A
	lda     _playerJumping
	bne     L082A
;
; playerVertVel = 4;
;
	lda     #$04
	sta     _playerVertVel
;
; playerJumping = 1;
;
	lda     #$01
	sta     _playerJumping
;
; playerJumpCounter = 0;
;
	lda     #$00
	sta     _playerJumpCounter
;
; if ( !( pad & PAD_A ) && playerJumping && ( playerVertVel > 0 ) ) {
;
L082A:	lda     _pad
	and     #$01
	bne     L082E
	lda     _playerJumping
	beq     L082E
	lda     _playerVertVel
	sec
	sbc     #$01
	bvs     L0721
	eor     #$80
L0721:	bpl     L082E
;
; playerVertVel = 0;
;
	lda     #$00
	sta     _playerVertVel
;
; if ( playerVertVel > 0 ) {
;
L082E:	lda     _playerVertVel
	sec
	sbc     #$01
	bvs     L0728
	eor     #$80
L0728:	bpl     L0725
;
; player_y -= playerVertVel;
;
	lda     _playerVertVel
	eor     #$FF
	sec
	adc     _player_y
	sta     _player_y
;
; if ( collideCheckVertical(player_x, player_y, PAD_A) == TILE_ALLCOLLIDE ) { 
;
	jsr     decsp2
	lda     _player_x
	ldy     #$01
	sta     (sp),y
	lda     _player_y
	dey
	sta     (sp),y
	lda     #$01
	jsr     _collideCheckVertical
	cmp     #$01
	bne     L0833
;
; player_y = (player_y & 0xF8) + 8;
;
	lda     _player_y
	and     #$F8
	clc
	adc     #$08
	sta     _player_y
;
; } else {
;
	jmp     L0833
;
; if ( collideCheckVertical(player_x, player_y + 2, PAD_DOWN) != TILE_ALLCOLLIDE ) { 
;
L0725:	jsr     decsp2
	lda     _player_x
	ldy     #$01
	sta     (sp),y
	lda     _player_y
	clc
	adc     #$02
	dey
	sta     (sp),y
	lda     #$20
	jsr     _collideCheckVertical
	cmp     #$01
	beq     L0736
;
; player_y -= playerVertVel;
;
	lda     _playerVertVel
	eor     #$FF
	sec
	adc     _player_y
	sta     _player_y
;
; } else {
;
	jmp     L0833
;
; player_y = (player_y & 0xF8) + 7;
;
L0736:	lda     _player_y
	and     #$F8
	clc
	adc     #$07
	sta     _player_y
;
; playerJumping = 0;
;
	lda     #$00
	sta     _playerJumping
;
; if ( ( playerJumpCounter == 5 ) && ( playerVertVel > -3 ) ) {
;
L0833:	lda     _playerJumpCounter
	cmp     #$05
	bne     L0837
	lda     _playerVertVel
	sec
	sbc     #$FE
	bvs     L074C
	eor     #$80
L074C:	bpl     L0837
;
; playerVertVel -= 1; 
;
	dec     _playerVertVel
;
; playerJumpCounter = 0;
;
	lda     #$00
	sta     _playerJumpCounter
;
; ++playerJumpCounter;
;
L0837:	inc     _playerJumpCounter
;
; }
;
	rts

.endproc

; ---------------------------------------------------------------
; void __near__ playerMoveHorizontal (void)
; ---------------------------------------------------------------

.segment	"CODE"

.proc	_playerMoveHorizontal: near

.segment	"CODE"

;
; playerDir = pad;
;
	lda     _pad
	sta     _playerDir
;
; if ( pad&PAD_LEFT  && player_x > 0 ) {
;
	lda     _pad
	and     #$40
	beq     L083B
	lda     _player_x
	beq     L083B
;
; player_x -= 1;
;
	dec     _player_x
;
; if ( pad&PAD_RIGHT && player_x < 240 ) {
;
L083B:	lda     _pad
	and     #$80
	beq     L075D
	lda     _player_x
	cmp     #$F0
	bcs     L075D
;
; player_x += 1;
;
	inc     _player_x
;
; bgHorizCollideCheck(&player_x, &player_y, playerDir);
;
L075D:	jsr     decsp4
	lda     #<(_player_x)
	ldy     #$02
	sta     (sp),y
	iny
	lda     #>(_player_x)
	sta     (sp),y
	lda     #<(_player_y)
	ldy     #$00
	sta     (sp),y
	iny
	lda     #>(_player_y)
	sta     (sp),y
	lda     _playerDir
	jmp     _bgHorizCollideCheck

.endproc

; ---------------------------------------------------------------
; void __near__ updateEnemySprites (void)
; ---------------------------------------------------------------

.segment	"CODE"

.proc	_updateEnemySprites: near

.segment	"CODE"

;
; for ( i = 0; i < numEnemies; ++i ) {
;
	lda     #$00
	sta     _i
L083F:	lda     _i
	cmp     _numEnemies
	bcc     L0841
;
; }
;
	rts
;
; spriteFlickerIndex = spriteCount();
;
L0841:	jsr     _spriteCount
	sta     _spriteFlickerIndex
;
; if ( ( frame & 0x0F ) == 0x0F ) {
;
	lda     _frame
	ldx     #$00
	and     #$0F
	cmp     #$0F
	bne     L0840
;
; enemyData[spriteFlickerIndex].frame ^= 1;
;
	lda     _spriteFlickerIndex
	jsr     aslax2
	clc
	adc     #<(_enemyData)
	sta     ptr1
	txa
	adc     #>(_enemyData)
	sta     ptr1+1
	ldy     #$02
	lda     (ptr1),y
	eor     #$01
	sta     (ptr1),y
;
; setSpriteFrame(enemySpriteData[spriteFlickerIndex], enemyFrames[enemyData[spriteFlickerIndex].frame]);
;
	lda     _spriteFlickerIndex
	jsr     pusha0
	lda     #$11
	jsr     tosmula0
	clc
	adc     #<(_enemySpriteData)
	tay
	txa
	adc     #>(_enemySpriteData)
	tax
	tya
	jsr     pushax
	ldx     #$00
	lda     _spriteFlickerIndex
	jsr     aslax2
	clc
	adc     #<(_enemyData)
	sta     ptr1
	txa
	adc     #>(_enemyData)
	sta     ptr1+1
	ldy     #$02
	ldx     #$00
	lda     (ptr1),y
	jsr     aslax2
	clc
	adc     #<(_enemyFrames)
	tay
	txa
	adc     #>(_enemyFrames)
	tax
	tya
	jsr     _setSpriteFrame
;
; setSpritePriority(enemySpriteData[i], sprPriorityToggle);
;
L0840:	lda     _i
	jsr     pusha0
	lda     #$11
	jsr     tosmula0
	clc
	adc     #<(_enemySpriteData)
	tay
	txa
	adc     #>(_enemySpriteData)
	tax
	tya
	jsr     pushax
	lda     _sprPriorityToggle
	jsr     _setSpritePriority
;
; sprPriorityToggle ^= 1;
;
	lda     _sprPriorityToggle
	eor     #$01
	sta     _sprPriorityToggle
;
; spr = oam_meta_spr(enemyData[spriteFlickerIndex].x, enemyData[spriteFlickerIndex].y, spr, enemySpriteData[spriteFlickerIndex]); 
;
	jsr     decsp3
	ldx     #$00
	lda     _spriteFlickerIndex
	jsr     aslax2
	sta     ptr1
	txa
	clc
	adc     #>(_enemyData)
	sta     ptr1+1
	ldy     #<(_enemyData)
	lda     (ptr1),y
	ldy     #$02
	sta     (sp),y
	ldx     #$00
	lda     _spriteFlickerIndex
	jsr     aslax2
	clc
	adc     #<(_enemyData)
	sta     ptr1
	txa
	adc     #>(_enemyData)
	sta     ptr1+1
	dey
	lda     (ptr1),y
	sta     (sp),y
	lda     _spr
	dey
	sta     (sp),y
	lda     _spriteFlickerIndex
	jsr     pusha0
	lda     #$11
	jsr     tosmula0
	clc
	adc     #<(_enemySpriteData)
	tay
	txa
	adc     #>(_enemySpriteData)
	tax
	tya
	jsr     _oam_meta_spr
	sta     _spr
;
; for ( i = 0; i < numEnemies; ++i ) {
;
	inc     _i
	jmp     L083F

.endproc

; ---------------------------------------------------------------
; void __near__ updatePlayerSprite (void)
; ---------------------------------------------------------------

.segment	"CODE"

.proc	_updatePlayerSprite: near

.segment	"CODE"

;
; if ( pad & PAD_RIGHT ) {
;
	lda     _pad
	and     #$80
	beq     L0843
;
; flipSprite(playerSpriteData, 1);
;
	lda     #<(_playerSpriteData)
	ldx     #>(_playerSpriteData)
	jsr     pushax
	lda     #$01
;
; } else if ( pad & PAD_LEFT ) {
;
	jmp     L0842
L0843:	lda     _pad
	and     #$40
	beq     L0844
;
; flipSprite(playerSpriteData, 0);
;
	lda     #<(_playerSpriteData)
	ldx     #>(_playerSpriteData)
	jsr     pushax
	lda     #$00
L0842:	jsr     _flipSprite
;
; if ( ( frame & 0x0F ) == 0x0F ) {
;
L0844:	lda     _frame
	and     #$0F
	cmp     #$0F
	bne     L079A
;
; playerFrame ^= 1;
;
	lda     _playerFrame
	eor     #$01
	sta     _playerFrame
;
; setSpriteFrame(playerSpriteData, playerFrames[playerFrame]);
;
	lda     #<(_playerSpriteData)
	ldx     #>(_playerSpriteData)
	jsr     pushax
	ldx     #$00
	lda     _playerFrame
	jsr     aslax2
	clc
	adc     #<(_playerFrames)
	tay
	txa
	adc     #>(_playerFrames)
	tax
	tya
	jsr     _setSpriteFrame
;
; spr = oam_meta_spr(player_x, player_y, spr, playerSpriteData); 
;
L079A:	jsr     decsp3
	lda     _player_x
	ldy     #$02
	sta     (sp),y
	lda     _player_y
	dey
	sta     (sp),y
	lda     _spr
	dey
	sta     (sp),y
	lda     #<(_playerSpriteData)
	ldx     #>(_playerSpriteData)
	jsr     _oam_meta_spr
	sta     _spr
;
; }
;
	rts

.endproc

; ---------------------------------------------------------------
; void __near__ main (void)
; ---------------------------------------------------------------

.segment	"CODE"

.proc	_main: near

.segment	"CODE"

;
; memcpy(palSprites, paldat, 16);
;
	jsr     decsp1
	ldy     #$0F
L07AF:	lda     _paldat,y
	sta     _palSprites,y
	dey
	bpl     L07AF
;
; memcpy(palBG, paldat, 4);
;
	ldy     #$03
L07B4:	lda     _paldat,y
	sta     _palBG,y
	dey
	bpl     L07B4
;
; pal_spr(palSprites);
;
	lda     #<(_palSprites)
	ldx     #>(_palSprites)
	jsr     _pal_spr
;
; pal_bg(palBG);
;
	lda     #<(_palBG)
	ldx     #>(_palBG)
	jsr     _pal_bg
;
; vram_adr(NAMETABLE_A); //unpack nametable into VRAM
;
	ldx     #$20
	lda     #$00
	jsr     _vram_adr
;
; vram_unrle(test_nam); 
;
	lda     #<(_test_nam)
	ldx     #>(_test_nam)
	jsr     _vram_unrle
;
; ppu_on_all(); //enable rendering
;
	jsr     _ppu_on_all
;
; player_x = 0;
;
	lda     #$00
	sta     _player_x
;
; player_y = 0;
;
	sta     _player_y
;
; playerDir = PAD_RIGHT;
;
	lda     #$80
	sta     _playerDir
;
; enemy_x = enemyInitX;
;
	lda     _enemyInitX
	sta     _enemy_x
;
; enemy_y = enemyInitY;
;
	lda     _enemyInitY
	sta     _enemy_y
;
; touch = 0; // collision flag
;
	lda     #$00
	sta     _touch
;
; frame = 0; // frame counter
;
	sta     _frame
;
; playerFrame = 0;
;
	sta     _playerFrame
;
; setSpriteFrame(playerSpriteData, playerFrames[playerFrame]);
;
	lda     #<(_playerSpriteData)
	ldx     #>(_playerSpriteData)
	jsr     pushax
	ldx     #$00
	lda     _playerFrame
	jsr     aslax2
	clc
	adc     #<(_playerFrames)
	tay
	txa
	adc     #>(_playerFrames)
	tax
	tya
	jsr     _setSpriteFrame
;
; setupMap();
;
	jsr     _setupMap
;
; ppu_wait_frame(); // wait for next TV frame
;
L07D3:	jsr     _ppu_wait_frame
;
; spr = 0;
;
	lda     #$00
	sta     _spr
;
; i = 0;
;
	sta     _i
;
; sprPriorityToggle = frame & 0xFE;
;
	lda     _frame
	and     #$FE
	sta     _sprPriorityToggle
;
; pad = pad_poll(i);
;
	lda     _i
	jsr     _pad_poll
	sta     _pad
;
; updatePlayerSprite();
;
	jsr     _updatePlayerSprite
;
; updateEnemySprites();
;
	jsr     _updateEnemySprites
;
; spriteCount();
;
	jsr     _spriteCount
;
; updateEnemies();
;
	jsr     _updateEnemies
;
; playerMoveHorizontal();
;
	jsr     _playerMoveHorizontal
;
; updatePlayerVerticalMovement();
;
	jsr     _updatePlayerVerticalMovement
;
; four_Sides(player_x, player_y); 
;
	lda     _player_x
	jsr     pusha
	lda     _player_y
	jsr     _four_Sides
;
; playerEnemyCollideCheck();
;
	jsr     _playerEnemyCollideCheck
;
; if ( playerEnemyColliding ) {
;
	lda     _playerEnemyColliding
	beq     L07EB
;
; setSpritePalette(playerSpriteData, 0x0);
;
	lda     #<(_playerSpriteData)
	ldx     #>(_playerSpriteData)
	jsr     pushax
	lda     #$00
;
; } else {
;
	jmp     L0845
;
; setSpritePalette(playerSpriteData, 0x3);
;
L07EB:	lda     #<(_playerSpriteData)
	ldx     #>(_playerSpriteData)
	jsr     pushax
	lda     #$03
L0845:	jsr     _setSpritePalette
;
; ++frame;
;
	inc     _frame
;
; while ( 1 )
;
	jmp     L07D3

.endproc

